
Tut3_2tasks_1periodicTask.elf:     file format elf32-avr

Sections:
Idx Name          Size      VMA       LMA       File off  Algn
  0 .text         000018e0  00000000  00000000  00000094  2**1
                  CONTENTS, ALLOC, LOAD, READONLY, CODE
  1 .data         0000005c  00800060  000018e0  00001974  2**0
                  CONTENTS, ALLOC, LOAD, DATA
  2 .bss          000002e5  008000bc  008000bc  000019d0  2**0
                  ALLOC
  3 .stab         00000888  00000000  00000000  000019d0  2**2
                  CONTENTS, READONLY, DEBUGGING
  4 .stabstr      000000df  00000000  00000000  00002258  2**0
                  CONTENTS, READONLY, DEBUGGING

Disassembly of section .text:

00000000 <__vectors>:
       0:	0c 94 2a 00 	jmp	0x54	; 0x54 <__ctors_end>
       4:	0c 94 47 00 	jmp	0x8e	; 0x8e <__bad_interrupt>
       8:	0c 94 47 00 	jmp	0x8e	; 0x8e <__bad_interrupt>
       c:	0c 94 47 00 	jmp	0x8e	; 0x8e <__bad_interrupt>
      10:	0c 94 47 00 	jmp	0x8e	; 0x8e <__bad_interrupt>
      14:	0c 94 47 00 	jmp	0x8e	; 0x8e <__bad_interrupt>
      18:	0c 94 47 00 	jmp	0x8e	; 0x8e <__bad_interrupt>
      1c:	0c 94 95 04 	jmp	0x92a	; 0x92a <__vector_7>
      20:	0c 94 47 00 	jmp	0x8e	; 0x8e <__bad_interrupt>
      24:	0c 94 47 00 	jmp	0x8e	; 0x8e <__bad_interrupt>
      28:	0c 94 47 00 	jmp	0x8e	; 0x8e <__bad_interrupt>
      2c:	0c 94 47 00 	jmp	0x8e	; 0x8e <__bad_interrupt>
      30:	0c 94 47 00 	jmp	0x8e	; 0x8e <__bad_interrupt>
      34:	0c 94 47 00 	jmp	0x8e	; 0x8e <__bad_interrupt>
      38:	0c 94 47 00 	jmp	0x8e	; 0x8e <__bad_interrupt>
      3c:	0c 94 47 00 	jmp	0x8e	; 0x8e <__bad_interrupt>
      40:	0c 94 47 00 	jmp	0x8e	; 0x8e <__bad_interrupt>
      44:	0c 94 47 00 	jmp	0x8e	; 0x8e <__bad_interrupt>
      48:	0c 94 47 00 	jmp	0x8e	; 0x8e <__bad_interrupt>
      4c:	0c 94 47 00 	jmp	0x8e	; 0x8e <__bad_interrupt>
      50:	0c 94 47 00 	jmp	0x8e	; 0x8e <__bad_interrupt>

00000054 <__ctors_end>:
      54:	11 24       	eor	r1, r1
      56:	1f be       	out	0x3f, r1	; 63
      58:	cf e5       	ldi	r28, 0x5F	; 95
      5a:	d8 e0       	ldi	r29, 0x08	; 8
      5c:	de bf       	out	0x3e, r29	; 62
      5e:	cd bf       	out	0x3d, r28	; 61

00000060 <__do_copy_data>:
      60:	10 e0       	ldi	r17, 0x00	; 0
      62:	a0 e6       	ldi	r26, 0x60	; 96
      64:	b0 e0       	ldi	r27, 0x00	; 0
      66:	e0 ee       	ldi	r30, 0xE0	; 224
      68:	f8 e1       	ldi	r31, 0x18	; 24
      6a:	02 c0       	rjmp	.+4      	; 0x70 <__do_copy_data+0x10>
      6c:	05 90       	lpm	r0, Z+
      6e:	0d 92       	st	X+, r0
      70:	ac 3b       	cpi	r26, 0xBC	; 188
      72:	b1 07       	cpc	r27, r17
      74:	d9 f7       	brne	.-10     	; 0x6c <__do_copy_data+0xc>

00000076 <__do_clear_bss>:
      76:	13 e0       	ldi	r17, 0x03	; 3
      78:	ac eb       	ldi	r26, 0xBC	; 188
      7a:	b0 e0       	ldi	r27, 0x00	; 0
      7c:	01 c0       	rjmp	.+2      	; 0x80 <.do_clear_bss_start>

0000007e <.do_clear_bss_loop>:
      7e:	1d 92       	st	X+, r1

00000080 <.do_clear_bss_start>:
      80:	a1 3a       	cpi	r26, 0xA1	; 161
      82:	b1 07       	cpc	r27, r17
      84:	e1 f7       	brne	.-8      	; 0x7e <.do_clear_bss_loop>
      86:	0e 94 31 03 	call	0x662	; 0x662 <main>
      8a:	0c 94 6e 0c 	jmp	0x18dc	; 0x18dc <_exit>

0000008e <__bad_interrupt>:
      8e:	0c 94 00 00 	jmp	0	; 0x0 <__vectors>

00000092 <xCoRoutineCreate>:
      92:	af 92       	push	r10
      94:	bf 92       	push	r11
      96:	cf 92       	push	r12
      98:	df 92       	push	r13
      9a:	ef 92       	push	r14
      9c:	ff 92       	push	r15
      9e:	0f 93       	push	r16
      a0:	1f 93       	push	r17
      a2:	cf 93       	push	r28
      a4:	df 93       	push	r29
      a6:	6c 01       	movw	r12, r24
      a8:	b6 2e       	mov	r11, r22
      aa:	a4 2e       	mov	r10, r20
      ac:	8a e1       	ldi	r24, 0x1A	; 26
      ae:	90 e0       	ldi	r25, 0x00	; 0
      b0:	0e 94 21 02 	call	0x442	; 0x442 <pvPortMalloc>
      b4:	e8 2e       	mov	r14, r24
      b6:	e7 01       	movw	r28, r14
      b8:	7e 01       	movw	r14, r28
      ba:	f9 2e       	mov	r15, r25
      bc:	e7 01       	movw	r28, r14
      be:	20 97       	sbiw	r28, 0x00	; 0
      c0:	09 f4       	brne	.+2      	; 0xc4 <xCoRoutineCreate+0x32>
      c2:	5e c0       	rjmp	.+188    	; 0x180 <xCoRoutineCreate+0xee>
      c4:	80 91 bc 00 	lds	r24, 0x00BC
      c8:	90 91 bd 00 	lds	r25, 0x00BD
      cc:	00 97       	sbiw	r24, 0x00	; 0
      ce:	21 f5       	brne	.+72     	; 0x118 <xCoRoutineCreate+0x86>
      d0:	f0 92 bd 00 	sts	0x00BD, r15
      d4:	e0 92 bc 00 	sts	0x00BC, r14
      d8:	88 ec       	ldi	r24, 0xC8	; 200
      da:	90 e0       	ldi	r25, 0x00	; 0
      dc:	0e 94 76 02 	call	0x4ec	; 0x4ec <vListInitialise>
      e0:	81 ed       	ldi	r24, 0xD1	; 209
      e2:	90 e0       	ldi	r25, 0x00	; 0
      e4:	0e 94 76 02 	call	0x4ec	; 0x4ec <vListInitialise>
      e8:	54 ee       	ldi	r21, 0xE4	; 228
      ea:	e5 2e       	mov	r14, r21
      ec:	50 e0       	ldi	r21, 0x00	; 0
      ee:	f5 2e       	mov	r15, r21
      f0:	c7 01       	movw	r24, r14
      f2:	0e 94 76 02 	call	0x4ec	; 0x4ec <vListInitialise>
      f6:	0d ee       	ldi	r16, 0xED	; 237
      f8:	10 e0       	ldi	r17, 0x00	; 0
      fa:	c8 01       	movw	r24, r16
      fc:	0e 94 76 02 	call	0x4ec	; 0x4ec <vListInitialise>
     100:	8e eb       	ldi	r24, 0xBE	; 190
     102:	90 e0       	ldi	r25, 0x00	; 0
     104:	0e 94 76 02 	call	0x4ec	; 0x4ec <vListInitialise>
     108:	f0 92 e1 00 	sts	0x00E1, r15
     10c:	e0 92 e0 00 	sts	0x00E0, r14
     110:	10 93 e3 00 	sts	0x00E3, r17
     114:	00 93 e2 00 	sts	0x00E2, r16
     118:	bb 20       	and	r11, r11
     11a:	11 f0       	breq	.+4      	; 0x120 <xCoRoutineCreate+0x8e>
     11c:	bb 24       	eor	r11, r11
     11e:	b3 94       	inc	r11
     120:	19 8e       	std	Y+25, r1	; 0x19
     122:	18 8e       	std	Y+24, r1	; 0x18
     124:	be 8a       	std	Y+22, r11	; 0x16
     126:	af 8a       	std	Y+23, r10	; 0x17
     128:	fe 01       	movw	r30, r28
     12a:	c1 92       	st	Z+, r12
     12c:	d1 92       	st	Z+, r13
     12e:	8f 01       	movw	r16, r30
     130:	cf 01       	movw	r24, r30
     132:	0e 94 84 02 	call	0x508	; 0x508 <vListInitialiseItem>
     136:	ce 01       	movw	r24, r28
     138:	0c 96       	adiw	r24, 0x0c	; 12
     13a:	0e 94 84 02 	call	0x508	; 0x508 <vListInitialiseItem>
     13e:	d9 87       	std	Y+9, r29	; 0x09
     140:	c8 87       	std	Y+8, r28	; 0x08
     142:	db 8b       	std	Y+19, r29	; 0x13
     144:	ca 8b       	std	Y+18, r28	; 0x12
     146:	83 e0       	ldi	r24, 0x03	; 3
     148:	90 e0       	ldi	r25, 0x00	; 0
     14a:	8b 19       	sub	r24, r11
     14c:	91 09       	sbc	r25, r1
     14e:	9d 87       	std	Y+13, r25	; 0x0d
     150:	8c 87       	std	Y+12, r24	; 0x0c
     152:	2e 89       	ldd	r18, Y+22	; 0x16
     154:	80 91 c7 00 	lds	r24, 0x00C7
     158:	82 17       	cp	r24, r18
     15a:	10 f4       	brcc	.+4      	; 0x160 <xCoRoutineCreate+0xce>
     15c:	20 93 c7 00 	sts	0x00C7, r18
     160:	30 e0       	ldi	r19, 0x00	; 0
     162:	c9 01       	movw	r24, r18
     164:	43 e0       	ldi	r20, 0x03	; 3
     166:	88 0f       	add	r24, r24
     168:	99 1f       	adc	r25, r25
     16a:	4a 95       	dec	r20
     16c:	e1 f7       	brne	.-8      	; 0x166 <xCoRoutineCreate+0xd4>
     16e:	82 0f       	add	r24, r18
     170:	93 1f       	adc	r25, r19
     172:	88 53       	subi	r24, 0x38	; 56
     174:	9f 4f       	sbci	r25, 0xFF	; 255
     176:	b8 01       	movw	r22, r16
     178:	0e 94 88 02 	call	0x510	; 0x510 <vListInsertEnd>
     17c:	81 e0       	ldi	r24, 0x01	; 1
     17e:	01 c0       	rjmp	.+2      	; 0x182 <xCoRoutineCreate+0xf0>
     180:	8f ef       	ldi	r24, 0xFF	; 255
     182:	df 91       	pop	r29
     184:	cf 91       	pop	r28
     186:	1f 91       	pop	r17
     188:	0f 91       	pop	r16
     18a:	ff 90       	pop	r15
     18c:	ef 90       	pop	r14
     18e:	df 90       	pop	r13
     190:	cf 90       	pop	r12
     192:	bf 90       	pop	r11
     194:	af 90       	pop	r10
     196:	08 95       	ret

00000198 <vCoRoutineAddToDelayedList>:
     198:	0f 93       	push	r16
     19a:	1f 93       	push	r17
     19c:	cf 93       	push	r28
     19e:	df 93       	push	r29
     1a0:	eb 01       	movw	r28, r22
     1a2:	00 91 de 00 	lds	r16, 0x00DE
     1a6:	10 91 df 00 	lds	r17, 0x00DF
     1aa:	08 0f       	add	r16, r24
     1ac:	19 1f       	adc	r17, r25
     1ae:	80 91 bc 00 	lds	r24, 0x00BC
     1b2:	90 91 bd 00 	lds	r25, 0x00BD
     1b6:	02 96       	adiw	r24, 0x02	; 2
     1b8:	0e 94 e4 02 	call	0x5c8	; 0x5c8 <vListRemove>
     1bc:	60 91 bc 00 	lds	r22, 0x00BC
     1c0:	70 91 bd 00 	lds	r23, 0x00BD
     1c4:	fb 01       	movw	r30, r22
     1c6:	13 83       	std	Z+3, r17	; 0x03
     1c8:	02 83       	std	Z+2, r16	; 0x02
     1ca:	80 91 de 00 	lds	r24, 0x00DE
     1ce:	90 91 df 00 	lds	r25, 0x00DF
     1d2:	6e 5f       	subi	r22, 0xFE	; 254
     1d4:	7f 4f       	sbci	r23, 0xFF	; 255
     1d6:	08 17       	cp	r16, r24
     1d8:	19 07       	cpc	r17, r25
     1da:	28 f4       	brcc	.+10     	; 0x1e6 <vCoRoutineAddToDelayedList+0x4e>
     1dc:	80 91 e2 00 	lds	r24, 0x00E2
     1e0:	90 91 e3 00 	lds	r25, 0x00E3
     1e4:	04 c0       	rjmp	.+8      	; 0x1ee <vCoRoutineAddToDelayedList+0x56>
     1e6:	80 91 e0 00 	lds	r24, 0x00E0
     1ea:	90 91 e1 00 	lds	r25, 0x00E1
     1ee:	0e 94 ad 02 	call	0x55a	; 0x55a <vListInsert>
     1f2:	20 97       	sbiw	r28, 0x00	; 0
     1f4:	49 f0       	breq	.+18     	; 0x208 <vCoRoutineAddToDelayedList+0x70>
     1f6:	60 91 bc 00 	lds	r22, 0x00BC
     1fa:	70 91 bd 00 	lds	r23, 0x00BD
     1fe:	64 5f       	subi	r22, 0xF4	; 244
     200:	7f 4f       	sbci	r23, 0xFF	; 255
     202:	ce 01       	movw	r24, r28
     204:	0e 94 ad 02 	call	0x55a	; 0x55a <vListInsert>
     208:	df 91       	pop	r29
     20a:	cf 91       	pop	r28
     20c:	1f 91       	pop	r17
     20e:	0f 91       	pop	r16
     210:	08 95       	ret

00000212 <vCoRoutineSchedule>:
     212:	0f 93       	push	r16
     214:	1f 93       	push	r17
     216:	cf 93       	push	r28
     218:	df 93       	push	r29
     21a:	27 c0       	rjmp	.+78     	; 0x26a <vCoRoutineSchedule+0x58>
     21c:	f8 94       	cli
     21e:	e0 91 c3 00 	lds	r30, 0x00C3
     222:	f0 91 c4 00 	lds	r31, 0x00C4
     226:	c6 81       	ldd	r28, Z+6	; 0x06
     228:	d7 81       	ldd	r29, Z+7	; 0x07
     22a:	ce 01       	movw	r24, r28
     22c:	0c 96       	adiw	r24, 0x0c	; 12
     22e:	0e 94 e4 02 	call	0x5c8	; 0x5c8 <vListRemove>
     232:	78 94       	sei
     234:	8e 01       	movw	r16, r28
     236:	0e 5f       	subi	r16, 0xFE	; 254
     238:	1f 4f       	sbci	r17, 0xFF	; 255
     23a:	c8 01       	movw	r24, r16
     23c:	0e 94 e4 02 	call	0x5c8	; 0x5c8 <vListRemove>
     240:	2e 89       	ldd	r18, Y+22	; 0x16
     242:	80 91 c7 00 	lds	r24, 0x00C7
     246:	82 17       	cp	r24, r18
     248:	10 f4       	brcc	.+4      	; 0x24e <vCoRoutineSchedule+0x3c>
     24a:	20 93 c7 00 	sts	0x00C7, r18
     24e:	30 e0       	ldi	r19, 0x00	; 0
     250:	c9 01       	movw	r24, r18
     252:	f3 e0       	ldi	r31, 0x03	; 3
     254:	88 0f       	add	r24, r24
     256:	99 1f       	adc	r25, r25
     258:	fa 95       	dec	r31
     25a:	e1 f7       	brne	.-8      	; 0x254 <vCoRoutineSchedule+0x42>
     25c:	82 0f       	add	r24, r18
     25e:	93 1f       	adc	r25, r19
     260:	88 53       	subi	r24, 0x38	; 56
     262:	9f 4f       	sbci	r25, 0xFF	; 255
     264:	b8 01       	movw	r22, r16
     266:	0e 94 88 02 	call	0x510	; 0x510 <vListInsertEnd>
     26a:	80 91 be 00 	lds	r24, 0x00BE
     26e:	88 23       	and	r24, r24
     270:	a9 f6       	brne	.-86     	; 0x21c <vCoRoutineSchedule+0xa>
     272:	0e 94 66 09 	call	0x12cc	; 0x12cc <xTaskGetTickCount>
     276:	20 91 da 00 	lds	r18, 0x00DA
     27a:	30 91 db 00 	lds	r19, 0x00DB
     27e:	82 1b       	sub	r24, r18
     280:	93 0b       	sbc	r25, r19
     282:	90 93 dd 00 	sts	0x00DD, r25
     286:	80 93 dc 00 	sts	0x00DC, r24
     28a:	59 c0       	rjmp	.+178    	; 0x33e <vCoRoutineSchedule+0x12c>
     28c:	01 96       	adiw	r24, 0x01	; 1
     28e:	90 93 df 00 	sts	0x00DF, r25
     292:	80 93 de 00 	sts	0x00DE, r24
     296:	21 50       	subi	r18, 0x01	; 1
     298:	30 40       	sbci	r19, 0x00	; 0
     29a:	30 93 dd 00 	sts	0x00DD, r19
     29e:	20 93 dc 00 	sts	0x00DC, r18
     2a2:	00 97       	sbiw	r24, 0x00	; 0
     2a4:	09 f0       	breq	.+2      	; 0x2a8 <vCoRoutineSchedule+0x96>
     2a6:	44 c0       	rjmp	.+136    	; 0x330 <vCoRoutineSchedule+0x11e>
     2a8:	80 91 e0 00 	lds	r24, 0x00E0
     2ac:	90 91 e1 00 	lds	r25, 0x00E1
     2b0:	20 91 e2 00 	lds	r18, 0x00E2
     2b4:	30 91 e3 00 	lds	r19, 0x00E3
     2b8:	30 93 e1 00 	sts	0x00E1, r19
     2bc:	20 93 e0 00 	sts	0x00E0, r18
     2c0:	90 93 e3 00 	sts	0x00E3, r25
     2c4:	80 93 e2 00 	sts	0x00E2, r24
     2c8:	33 c0       	rjmp	.+102    	; 0x330 <vCoRoutineSchedule+0x11e>
     2ca:	05 80       	ldd	r0, Z+5	; 0x05
     2cc:	f6 81       	ldd	r31, Z+6	; 0x06
     2ce:	e0 2d       	mov	r30, r0
     2d0:	c6 81       	ldd	r28, Z+6	; 0x06
     2d2:	d7 81       	ldd	r29, Z+7	; 0x07
     2d4:	20 91 de 00 	lds	r18, 0x00DE
     2d8:	30 91 df 00 	lds	r19, 0x00DF
     2dc:	8a 81       	ldd	r24, Y+2	; 0x02
     2de:	9b 81       	ldd	r25, Y+3	; 0x03
     2e0:	28 17       	cp	r18, r24
     2e2:	39 07       	cpc	r19, r25
     2e4:	60 f1       	brcs	.+88     	; 0x33e <vCoRoutineSchedule+0x12c>
     2e6:	f8 94       	cli
     2e8:	8e 01       	movw	r16, r28
     2ea:	0e 5f       	subi	r16, 0xFE	; 254
     2ec:	1f 4f       	sbci	r17, 0xFF	; 255
     2ee:	c8 01       	movw	r24, r16
     2f0:	0e 94 e4 02 	call	0x5c8	; 0x5c8 <vListRemove>
     2f4:	8c 89       	ldd	r24, Y+20	; 0x14
     2f6:	9d 89       	ldd	r25, Y+21	; 0x15
     2f8:	00 97       	sbiw	r24, 0x00	; 0
     2fa:	21 f0       	breq	.+8      	; 0x304 <vCoRoutineSchedule+0xf2>
     2fc:	ce 01       	movw	r24, r28
     2fe:	0c 96       	adiw	r24, 0x0c	; 12
     300:	0e 94 e4 02 	call	0x5c8	; 0x5c8 <vListRemove>
     304:	78 94       	sei
     306:	2e 89       	ldd	r18, Y+22	; 0x16
     308:	80 91 c7 00 	lds	r24, 0x00C7
     30c:	82 17       	cp	r24, r18
     30e:	10 f4       	brcc	.+4      	; 0x314 <vCoRoutineSchedule+0x102>
     310:	20 93 c7 00 	sts	0x00C7, r18
     314:	30 e0       	ldi	r19, 0x00	; 0
     316:	c9 01       	movw	r24, r18
     318:	e3 e0       	ldi	r30, 0x03	; 3
     31a:	88 0f       	add	r24, r24
     31c:	99 1f       	adc	r25, r25
     31e:	ea 95       	dec	r30
     320:	e1 f7       	brne	.-8      	; 0x31a <vCoRoutineSchedule+0x108>
     322:	82 0f       	add	r24, r18
     324:	93 1f       	adc	r25, r19
     326:	88 53       	subi	r24, 0x38	; 56
     328:	9f 4f       	sbci	r25, 0xFF	; 255
     32a:	b8 01       	movw	r22, r16
     32c:	0e 94 88 02 	call	0x510	; 0x510 <vListInsertEnd>
     330:	e0 91 e0 00 	lds	r30, 0x00E0
     334:	f0 91 e1 00 	lds	r31, 0x00E1
     338:	80 81       	ld	r24, Z
     33a:	88 23       	and	r24, r24
     33c:	31 f6       	brne	.-116    	; 0x2ca <vCoRoutineSchedule+0xb8>
     33e:	20 91 dc 00 	lds	r18, 0x00DC
     342:	30 91 dd 00 	lds	r19, 0x00DD
     346:	80 91 de 00 	lds	r24, 0x00DE
     34a:	90 91 df 00 	lds	r25, 0x00DF
     34e:	21 15       	cp	r18, r1
     350:	31 05       	cpc	r19, r1
     352:	09 f0       	breq	.+2      	; 0x356 <vCoRoutineSchedule+0x144>
     354:	9b cf       	rjmp	.-202    	; 0x28c <vCoRoutineSchedule+0x7a>
     356:	90 93 db 00 	sts	0x00DB, r25
     35a:	80 93 da 00 	sts	0x00DA, r24
     35e:	40 91 c7 00 	lds	r20, 0x00C7
     362:	06 c0       	rjmp	.+12     	; 0x370 <vCoRoutineSchedule+0x15e>
     364:	44 23       	and	r20, r20
     366:	19 f4       	brne	.+6      	; 0x36e <vCoRoutineSchedule+0x15c>
     368:	10 92 c7 00 	sts	0x00C7, r1
     36c:	40 c0       	rjmp	.+128    	; 0x3ee <vCoRoutineSchedule+0x1dc>
     36e:	41 50       	subi	r20, 0x01	; 1
     370:	84 2f       	mov	r24, r20
     372:	90 e0       	ldi	r25, 0x00	; 0
     374:	9c 01       	movw	r18, r24
     376:	73 e0       	ldi	r23, 0x03	; 3
     378:	22 0f       	add	r18, r18
     37a:	33 1f       	adc	r19, r19
     37c:	7a 95       	dec	r23
     37e:	e1 f7       	brne	.-8      	; 0x378 <vCoRoutineSchedule+0x166>
     380:	28 0f       	add	r18, r24
     382:	39 1f       	adc	r19, r25
     384:	f9 01       	movw	r30, r18
     386:	e8 53       	subi	r30, 0x38	; 56
     388:	ff 4f       	sbci	r31, 0xFF	; 255
     38a:	50 81       	ld	r21, Z
     38c:	55 23       	and	r21, r21
     38e:	51 f3       	breq	.-44     	; 0x364 <vCoRoutineSchedule+0x152>
     390:	40 93 c7 00 	sts	0x00C7, r20
     394:	a1 81       	ldd	r26, Z+1	; 0x01
     396:	b2 81       	ldd	r27, Z+2	; 0x02
     398:	12 96       	adiw	r26, 0x02	; 2
     39a:	0d 90       	ld	r0, X+
     39c:	bc 91       	ld	r27, X
     39e:	a0 2d       	mov	r26, r0
     3a0:	b2 83       	std	Z+2, r27	; 0x02
     3a2:	a1 83       	std	Z+1, r26	; 0x01
     3a4:	25 53       	subi	r18, 0x35	; 53
     3a6:	3f 4f       	sbci	r19, 0xFF	; 255
     3a8:	a2 17       	cp	r26, r18
     3aa:	b3 07       	cpc	r27, r19
     3ac:	31 f4       	brne	.+12     	; 0x3ba <vCoRoutineSchedule+0x1a8>
     3ae:	12 96       	adiw	r26, 0x02	; 2
     3b0:	2d 91       	ld	r18, X+
     3b2:	3c 91       	ld	r19, X
     3b4:	13 97       	sbiw	r26, 0x03	; 3
     3b6:	32 83       	std	Z+2, r19	; 0x02
     3b8:	21 83       	std	Z+1, r18	; 0x01
     3ba:	fc 01       	movw	r30, r24
     3bc:	63 e0       	ldi	r22, 0x03	; 3
     3be:	ee 0f       	add	r30, r30
     3c0:	ff 1f       	adc	r31, r31
     3c2:	6a 95       	dec	r22
     3c4:	e1 f7       	brne	.-8      	; 0x3be <vCoRoutineSchedule+0x1ac>
     3c6:	e8 0f       	add	r30, r24
     3c8:	f9 1f       	adc	r31, r25
     3ca:	e8 53       	subi	r30, 0x38	; 56
     3cc:	ff 4f       	sbci	r31, 0xFF	; 255
     3ce:	01 80       	ldd	r0, Z+1	; 0x01
     3d0:	f2 81       	ldd	r31, Z+2	; 0x02
     3d2:	e0 2d       	mov	r30, r0
     3d4:	a6 81       	ldd	r26, Z+6	; 0x06
     3d6:	b7 81       	ldd	r27, Z+7	; 0x07
     3d8:	b0 93 bd 00 	sts	0x00BD, r27
     3dc:	a0 93 bc 00 	sts	0x00BC, r26
     3e0:	ed 91       	ld	r30, X+
     3e2:	fc 91       	ld	r31, X
     3e4:	11 97       	sbiw	r26, 0x01	; 1
     3e6:	cd 01       	movw	r24, r26
     3e8:	57 96       	adiw	r26, 0x17	; 23
     3ea:	6c 91       	ld	r22, X
     3ec:	09 95       	icall
     3ee:	df 91       	pop	r29
     3f0:	cf 91       	pop	r28
     3f2:	1f 91       	pop	r17
     3f4:	0f 91       	pop	r16
     3f6:	08 95       	ret

000003f8 <xCoRoutineRemoveFromEventList>:
     3f8:	0f 93       	push	r16
     3fa:	1f 93       	push	r17
     3fc:	cf 93       	push	r28
     3fe:	df 93       	push	r29
     400:	dc 01       	movw	r26, r24
     402:	15 96       	adiw	r26, 0x05	; 5
     404:	ed 91       	ld	r30, X+
     406:	fc 91       	ld	r31, X
     408:	16 97       	sbiw	r26, 0x06	; 6
     40a:	c6 81       	ldd	r28, Z+6	; 0x06
     40c:	d7 81       	ldd	r29, Z+7	; 0x07
     40e:	8e 01       	movw	r16, r28
     410:	04 5f       	subi	r16, 0xF4	; 244
     412:	1f 4f       	sbci	r17, 0xFF	; 255
     414:	c8 01       	movw	r24, r16
     416:	0e 94 e4 02 	call	0x5c8	; 0x5c8 <vListRemove>
     41a:	8e eb       	ldi	r24, 0xBE	; 190
     41c:	90 e0       	ldi	r25, 0x00	; 0
     41e:	b8 01       	movw	r22, r16
     420:	0e 94 88 02 	call	0x510	; 0x510 <vListInsertEnd>
     424:	e0 91 bc 00 	lds	r30, 0x00BC
     428:	f0 91 bd 00 	lds	r31, 0x00BD
     42c:	81 e0       	ldi	r24, 0x01	; 1
     42e:	2e 89       	ldd	r18, Y+22	; 0x16
     430:	96 89       	ldd	r25, Z+22	; 0x16
     432:	29 17       	cp	r18, r25
     434:	08 f4       	brcc	.+2      	; 0x438 <xCoRoutineRemoveFromEventList+0x40>
     436:	80 e0       	ldi	r24, 0x00	; 0
     438:	df 91       	pop	r29
     43a:	cf 91       	pop	r28
     43c:	1f 91       	pop	r17
     43e:	0f 91       	pop	r16
     440:	08 95       	ret

00000442 <pvPortMalloc>:
     442:	ef 92       	push	r14
     444:	ff 92       	push	r15
     446:	0f 93       	push	r16
     448:	1f 93       	push	r17
     44a:	cf 93       	push	r28
     44c:	df 93       	push	r29
     44e:	8c 01       	movw	r16, r24
     450:	0e 94 60 09 	call	0x12c0	; 0x12c0 <vTaskSuspendAll>
     454:	c0 91 f6 00 	lds	r28, 0x00F6
     458:	d0 91 f7 00 	lds	r29, 0x00F7
     45c:	0c 0f       	add	r16, r28
     45e:	1d 1f       	adc	r17, r29
     460:	22 e0       	ldi	r18, 0x02	; 2
     462:	08 35       	cpi	r16, 0x58	; 88
     464:	12 07       	cpc	r17, r18
     466:	50 f4       	brcc	.+20     	; 0x47c <pvPortMalloc+0x3a>
     468:	c0 17       	cp	r28, r16
     46a:	d1 07       	cpc	r29, r17
     46c:	38 f4       	brcc	.+14     	; 0x47c <pvPortMalloc+0x3a>
     46e:	c8 50       	subi	r28, 0x08	; 8
     470:	df 4f       	sbci	r29, 0xFF	; 255
     472:	10 93 f7 00 	sts	0x00F7, r17
     476:	00 93 f6 00 	sts	0x00F6, r16
     47a:	02 c0       	rjmp	.+4      	; 0x480 <pvPortMalloc+0x3e>
     47c:	c0 e0       	ldi	r28, 0x00	; 0
     47e:	d0 e0       	ldi	r29, 0x00	; 0
     480:	0e 94 1c 0a 	call	0x1438	; 0x1438 <xTaskResumeAll>
     484:	ce 01       	movw	r24, r28
     486:	df 91       	pop	r29
     488:	cf 91       	pop	r28
     48a:	1f 91       	pop	r17
     48c:	0f 91       	pop	r16
     48e:	ff 90       	pop	r15
     490:	ef 90       	pop	r14
     492:	08 95       	ret

00000494 <vPortFree>:
     494:	08 95       	ret

00000496 <vPortInitialiseBlocks>:
     496:	10 92 f7 00 	sts	0x00F7, r1
     49a:	10 92 f6 00 	sts	0x00F6, r1
     49e:	08 95       	ret

000004a0 <xPortGetFreeHeapSize>:
     4a0:	28 e5       	ldi	r18, 0x58	; 88
     4a2:	32 e0       	ldi	r19, 0x02	; 2
     4a4:	80 91 f6 00 	lds	r24, 0x00F6
     4a8:	90 91 f7 00 	lds	r25, 0x00F7
     4ac:	28 1b       	sub	r18, r24
     4ae:	39 0b       	sbc	r19, r25
     4b0:	c9 01       	movw	r24, r18
     4b2:	08 95       	ret

000004b4 <led_toggle_Init>:
     4b4:	8f ef       	ldi	r24, 0xFF	; 255
     4b6:	84 bb       	out	0x14, r24	; 20
     4b8:	08 95       	ret

000004ba <toggle_led>:
     4ba:	95 b3       	in	r25, 0x15	; 21
     4bc:	21 e0       	ldi	r18, 0x01	; 1
     4be:	30 e0       	ldi	r19, 0x00	; 0
     4c0:	02 c0       	rjmp	.+4      	; 0x4c6 <toggle_led+0xc>
     4c2:	22 0f       	add	r18, r18
     4c4:	33 1f       	adc	r19, r19
     4c6:	8a 95       	dec	r24
     4c8:	e2 f7       	brpl	.-8      	; 0x4c2 <toggle_led+0x8>
     4ca:	92 27       	eor	r25, r18
     4cc:	95 bb       	out	0x15, r25	; 21
     4ce:	08 95       	ret

000004d0 <led_toggle_Init2>:
     4d0:	8f ef       	ldi	r24, 0xFF	; 255
     4d2:	81 bb       	out	0x11, r24	; 17
     4d4:	08 95       	ret

000004d6 <toggle_led2>:
     4d6:	92 b3       	in	r25, 0x12	; 18
     4d8:	21 e0       	ldi	r18, 0x01	; 1
     4da:	30 e0       	ldi	r19, 0x00	; 0
     4dc:	02 c0       	rjmp	.+4      	; 0x4e2 <toggle_led2+0xc>
     4de:	22 0f       	add	r18, r18
     4e0:	33 1f       	adc	r19, r19
     4e2:	8a 95       	dec	r24
     4e4:	e2 f7       	brpl	.-8      	; 0x4de <toggle_led2+0x8>
     4e6:	92 27       	eor	r25, r18
     4e8:	92 bb       	out	0x12, r25	; 18
     4ea:	08 95       	ret

000004ec <vListInitialise>:
     4ec:	fc 01       	movw	r30, r24
     4ee:	03 96       	adiw	r24, 0x03	; 3
     4f0:	92 83       	std	Z+2, r25	; 0x02
     4f2:	81 83       	std	Z+1, r24	; 0x01
     4f4:	2f ef       	ldi	r18, 0xFF	; 255
     4f6:	3f ef       	ldi	r19, 0xFF	; 255
     4f8:	34 83       	std	Z+4, r19	; 0x04
     4fa:	23 83       	std	Z+3, r18	; 0x03
     4fc:	96 83       	std	Z+6, r25	; 0x06
     4fe:	85 83       	std	Z+5, r24	; 0x05
     500:	90 87       	std	Z+8, r25	; 0x08
     502:	87 83       	std	Z+7, r24	; 0x07
     504:	10 82       	st	Z, r1
     506:	08 95       	ret

00000508 <vListInitialiseItem>:
     508:	fc 01       	movw	r30, r24
     50a:	11 86       	std	Z+9, r1	; 0x09
     50c:	10 86       	std	Z+8, r1	; 0x08
     50e:	08 95       	ret

00000510 <vListInsertEnd>:
     510:	cf 93       	push	r28
     512:	df 93       	push	r29
     514:	fc 01       	movw	r30, r24
     516:	db 01       	movw	r26, r22
     518:	21 81       	ldd	r18, Z+1	; 0x01
     51a:	32 81       	ldd	r19, Z+2	; 0x02
     51c:	e9 01       	movw	r28, r18
     51e:	8a 81       	ldd	r24, Y+2	; 0x02
     520:	9b 81       	ldd	r25, Y+3	; 0x03
     522:	13 96       	adiw	r26, 0x03	; 3
     524:	9c 93       	st	X, r25
     526:	8e 93       	st	-X, r24
     528:	12 97       	sbiw	r26, 0x02	; 2
     52a:	15 96       	adiw	r26, 0x05	; 5
     52c:	3c 93       	st	X, r19
     52e:	2e 93       	st	-X, r18
     530:	14 97       	sbiw	r26, 0x04	; 4
     532:	8a 81       	ldd	r24, Y+2	; 0x02
     534:	9b 81       	ldd	r25, Y+3	; 0x03
     536:	ec 01       	movw	r28, r24
     538:	7d 83       	std	Y+5, r23	; 0x05
     53a:	6c 83       	std	Y+4, r22	; 0x04
     53c:	e9 01       	movw	r28, r18
     53e:	7b 83       	std	Y+3, r23	; 0x03
     540:	6a 83       	std	Y+2, r22	; 0x02
     542:	72 83       	std	Z+2, r23	; 0x02
     544:	61 83       	std	Z+1, r22	; 0x01
     546:	19 96       	adiw	r26, 0x09	; 9
     548:	fc 93       	st	X, r31
     54a:	ee 93       	st	-X, r30
     54c:	18 97       	sbiw	r26, 0x08	; 8
     54e:	80 81       	ld	r24, Z
     550:	8f 5f       	subi	r24, 0xFF	; 255
     552:	80 83       	st	Z, r24
     554:	df 91       	pop	r29
     556:	cf 91       	pop	r28
     558:	08 95       	ret

0000055a <vListInsert>:
     55a:	cf 93       	push	r28
     55c:	df 93       	push	r29
     55e:	ac 01       	movw	r20, r24
     560:	eb 01       	movw	r28, r22
     562:	88 81       	ld	r24, Y
     564:	99 81       	ldd	r25, Y+1	; 0x01
     566:	2f ef       	ldi	r18, 0xFF	; 255
     568:	8f 3f       	cpi	r24, 0xFF	; 255
     56a:	92 07       	cpc	r25, r18
     56c:	21 f4       	brne	.+8      	; 0x576 <vListInsert+0x1c>
     56e:	fa 01       	movw	r30, r20
     570:	a7 81       	ldd	r26, Z+7	; 0x07
     572:	b0 85       	ldd	r27, Z+8	; 0x08
     574:	11 c0       	rjmp	.+34     	; 0x598 <vListInsert+0x3e>
     576:	da 01       	movw	r26, r20
     578:	13 96       	adiw	r26, 0x03	; 3
     57a:	04 c0       	rjmp	.+8      	; 0x584 <vListInsert+0x2a>
     57c:	12 96       	adiw	r26, 0x02	; 2
     57e:	0d 90       	ld	r0, X+
     580:	bc 91       	ld	r27, X
     582:	a0 2d       	mov	r26, r0
     584:	12 96       	adiw	r26, 0x02	; 2
     586:	2d 91       	ld	r18, X+
     588:	3c 91       	ld	r19, X
     58a:	13 97       	sbiw	r26, 0x03	; 3
     58c:	f9 01       	movw	r30, r18
     58e:	20 81       	ld	r18, Z
     590:	31 81       	ldd	r19, Z+1	; 0x01
     592:	82 17       	cp	r24, r18
     594:	93 07       	cpc	r25, r19
     596:	90 f7       	brcc	.-28     	; 0x57c <vListInsert+0x22>
     598:	12 96       	adiw	r26, 0x02	; 2
     59a:	8d 91       	ld	r24, X+
     59c:	9c 91       	ld	r25, X
     59e:	13 97       	sbiw	r26, 0x03	; 3
     5a0:	9b 83       	std	Y+3, r25	; 0x03
     5a2:	8a 83       	std	Y+2, r24	; 0x02
     5a4:	fc 01       	movw	r30, r24
     5a6:	d5 83       	std	Z+5, r29	; 0x05
     5a8:	c4 83       	std	Z+4, r28	; 0x04
     5aa:	bd 83       	std	Y+5, r27	; 0x05
     5ac:	ac 83       	std	Y+4, r26	; 0x04
     5ae:	13 96       	adiw	r26, 0x03	; 3
     5b0:	dc 93       	st	X, r29
     5b2:	ce 93       	st	-X, r28
     5b4:	12 97       	sbiw	r26, 0x02	; 2
     5b6:	59 87       	std	Y+9, r21	; 0x09
     5b8:	48 87       	std	Y+8, r20	; 0x08
     5ba:	fa 01       	movw	r30, r20
     5bc:	80 81       	ld	r24, Z
     5be:	8f 5f       	subi	r24, 0xFF	; 255
     5c0:	80 83       	st	Z, r24
     5c2:	df 91       	pop	r29
     5c4:	cf 91       	pop	r28
     5c6:	08 95       	ret

000005c8 <vListRemove>:
     5c8:	cf 93       	push	r28
     5ca:	df 93       	push	r29
     5cc:	fc 01       	movw	r30, r24
     5ce:	a2 81       	ldd	r26, Z+2	; 0x02
     5d0:	b3 81       	ldd	r27, Z+3	; 0x03
     5d2:	84 81       	ldd	r24, Z+4	; 0x04
     5d4:	95 81       	ldd	r25, Z+5	; 0x05
     5d6:	15 96       	adiw	r26, 0x05	; 5
     5d8:	9c 93       	st	X, r25
     5da:	8e 93       	st	-X, r24
     5dc:	14 97       	sbiw	r26, 0x04	; 4
     5de:	c4 81       	ldd	r28, Z+4	; 0x04
     5e0:	d5 81       	ldd	r29, Z+5	; 0x05
     5e2:	bb 83       	std	Y+3, r27	; 0x03
     5e4:	aa 83       	std	Y+2, r26	; 0x02
     5e6:	a0 85       	ldd	r26, Z+8	; 0x08
     5e8:	b1 85       	ldd	r27, Z+9	; 0x09
     5ea:	11 96       	adiw	r26, 0x01	; 1
     5ec:	8d 91       	ld	r24, X+
     5ee:	9c 91       	ld	r25, X
     5f0:	12 97       	sbiw	r26, 0x02	; 2
     5f2:	8e 17       	cp	r24, r30
     5f4:	9f 07       	cpc	r25, r31
     5f6:	21 f4       	brne	.+8      	; 0x600 <vListRemove+0x38>
     5f8:	12 96       	adiw	r26, 0x02	; 2
     5fa:	dc 93       	st	X, r29
     5fc:	ce 93       	st	-X, r28
     5fe:	11 97       	sbiw	r26, 0x01	; 1
     600:	11 86       	std	Z+9, r1	; 0x09
     602:	10 86       	std	Z+8, r1	; 0x08
     604:	8c 91       	ld	r24, X
     606:	81 50       	subi	r24, 0x01	; 1
     608:	8c 93       	st	X, r24
     60a:	df 91       	pop	r29
     60c:	cf 91       	pop	r28
     60e:	08 95       	ret

00000610 <uart_print_periodic>:
     610:	ef 92       	push	r14
     612:	ff 92       	push	r15
     614:	0f 93       	push	r16
     616:	1f 93       	push	r17
     618:	df 93       	push	r29
     61a:	cf 93       	push	r28
     61c:	00 d0       	rcall	.+0      	; 0x61e <uart_print_periodic+0xe>
     61e:	cd b7       	in	r28, 0x3d	; 61
     620:	de b7       	in	r29, 0x3e	; 62
     622:	7c 01       	movw	r14, r24
     624:	0e 94 66 09 	call	0x12cc	; 0x12cc <xTaskGetTickCount>
     628:	9a 83       	std	Y+2, r25	; 0x02
     62a:	89 83       	std	Y+1, r24	; 0x01
     62c:	0e 94 2a 0c 	call	0x1854	; 0x1854 <USART_Init>
     630:	8e 01       	movw	r16, r28
     632:	0f 5f       	subi	r16, 0xFF	; 255
     634:	1f 4f       	sbci	r17, 0xFF	; 255
     636:	c7 01       	movw	r24, r14
     638:	0e 94 3c 0c 	call	0x1878	; 0x1878 <USART_putstring>
     63c:	c8 01       	movw	r24, r16
     63e:	68 ee       	ldi	r22, 0xE8	; 232
     640:	73 e0       	ldi	r23, 0x03	; 3
     642:	0e 94 ef 0a 	call	0x15de	; 0x15de <vTaskDelayUntil>
     646:	f7 cf       	rjmp	.-18     	; 0x636 <uart_print_periodic+0x26>

00000648 <uart_print>:
     648:	0f 93       	push	r16
     64a:	1f 93       	push	r17
     64c:	8c 01       	movw	r16, r24
     64e:	0e 94 2a 0c 	call	0x1854	; 0x1854 <USART_Init>
     652:	c8 01       	movw	r24, r16
     654:	0e 94 3c 0c 	call	0x1878	; 0x1878 <USART_putstring>
     658:	88 ee       	ldi	r24, 0xE8	; 232
     65a:	93 e0       	ldi	r25, 0x03	; 3
     65c:	0e 94 cb 0a 	call	0x1596	; 0x1596 <vTaskDelay>
     660:	f8 cf       	rjmp	.-16     	; 0x652 <uart_print+0xa>

00000662 <main>:
     662:	af 92       	push	r10
     664:	bf 92       	push	r11
     666:	cf 92       	push	r12
     668:	df 92       	push	r13
     66a:	ef 92       	push	r14
     66c:	ff 92       	push	r15
     66e:	0f 93       	push	r16
     670:	84 e2       	ldi	r24, 0x24	; 36
     672:	93 e0       	ldi	r25, 0x03	; 3
     674:	60 e6       	ldi	r22, 0x60	; 96
     676:	70 e0       	ldi	r23, 0x00	; 0
     678:	45 e5       	ldi	r20, 0x55	; 85
     67a:	50 e0       	ldi	r21, 0x00	; 0
     67c:	26 e6       	ldi	r18, 0x66	; 102
     67e:	30 e0       	ldi	r19, 0x00	; 0
     680:	01 e0       	ldi	r16, 0x01	; 1
     682:	ee 24       	eor	r14, r14
     684:	ff 24       	eor	r15, r15
     686:	cc 24       	eor	r12, r12
     688:	dd 24       	eor	r13, r13
     68a:	aa 24       	eor	r10, r10
     68c:	bb 24       	eor	r11, r11
     68e:	0e 94 dc 07 	call	0xfb8	; 0xfb8 <xTaskGenericCreate>
     692:	84 e2       	ldi	r24, 0x24	; 36
     694:	93 e0       	ldi	r25, 0x03	; 3
     696:	6b e7       	ldi	r22, 0x7B	; 123
     698:	70 e0       	ldi	r23, 0x00	; 0
     69a:	45 e5       	ldi	r20, 0x55	; 85
     69c:	50 e0       	ldi	r21, 0x00	; 0
     69e:	22 e8       	ldi	r18, 0x82	; 130
     6a0:	30 e0       	ldi	r19, 0x00	; 0
     6a2:	0e 94 dc 07 	call	0xfb8	; 0xfb8 <xTaskGenericCreate>
     6a6:	88 e0       	ldi	r24, 0x08	; 8
     6a8:	93 e0       	ldi	r25, 0x03	; 3
     6aa:	67 e9       	ldi	r22, 0x97	; 151
     6ac:	70 e0       	ldi	r23, 0x00	; 0
     6ae:	45 e5       	ldi	r20, 0x55	; 85
     6b0:	50 e0       	ldi	r21, 0x00	; 0
     6b2:	2e e9       	ldi	r18, 0x9E	; 158
     6b4:	30 e0       	ldi	r19, 0x00	; 0
     6b6:	02 e0       	ldi	r16, 0x02	; 2
     6b8:	0e 94 dc 07 	call	0xfb8	; 0xfb8 <xTaskGenericCreate>
     6bc:	0e 94 2f 09 	call	0x125e	; 0x125e <vTaskStartScheduler>
     6c0:	ff cf       	rjmp	.-2      	; 0x6c0 <main+0x5e>

000006c2 <pxPortInitialiseStack>:
     6c2:	21 e1       	ldi	r18, 0x11	; 17
     6c4:	fc 01       	movw	r30, r24
     6c6:	20 83       	st	Z, r18
     6c8:	92 e2       	ldi	r25, 0x22	; 34
     6ca:	92 93       	st	-Z, r25
     6cc:	83 e3       	ldi	r24, 0x33	; 51
     6ce:	82 93       	st	-Z, r24
     6d0:	62 93       	st	-Z, r22
     6d2:	72 93       	st	-Z, r23
     6d4:	12 92       	st	-Z, r1
     6d6:	80 e8       	ldi	r24, 0x80	; 128
     6d8:	82 93       	st	-Z, r24
     6da:	12 92       	st	-Z, r1
     6dc:	82 e0       	ldi	r24, 0x02	; 2
     6de:	82 93       	st	-Z, r24
     6e0:	83 e0       	ldi	r24, 0x03	; 3
     6e2:	82 93       	st	-Z, r24
     6e4:	84 e0       	ldi	r24, 0x04	; 4
     6e6:	82 93       	st	-Z, r24
     6e8:	85 e0       	ldi	r24, 0x05	; 5
     6ea:	82 93       	st	-Z, r24
     6ec:	86 e0       	ldi	r24, 0x06	; 6
     6ee:	82 93       	st	-Z, r24
     6f0:	87 e0       	ldi	r24, 0x07	; 7
     6f2:	82 93       	st	-Z, r24
     6f4:	88 e0       	ldi	r24, 0x08	; 8
     6f6:	82 93       	st	-Z, r24
     6f8:	89 e0       	ldi	r24, 0x09	; 9
     6fa:	82 93       	st	-Z, r24
     6fc:	80 e1       	ldi	r24, 0x10	; 16
     6fe:	82 93       	st	-Z, r24
     700:	22 93       	st	-Z, r18
     702:	82 e1       	ldi	r24, 0x12	; 18
     704:	82 93       	st	-Z, r24
     706:	83 e1       	ldi	r24, 0x13	; 19
     708:	82 93       	st	-Z, r24
     70a:	84 e1       	ldi	r24, 0x14	; 20
     70c:	82 93       	st	-Z, r24
     70e:	85 e1       	ldi	r24, 0x15	; 21
     710:	82 93       	st	-Z, r24
     712:	86 e1       	ldi	r24, 0x16	; 22
     714:	82 93       	st	-Z, r24
     716:	87 e1       	ldi	r24, 0x17	; 23
     718:	82 93       	st	-Z, r24
     71a:	88 e1       	ldi	r24, 0x18	; 24
     71c:	82 93       	st	-Z, r24
     71e:	89 e1       	ldi	r24, 0x19	; 25
     720:	82 93       	st	-Z, r24
     722:	80 e2       	ldi	r24, 0x20	; 32
     724:	82 93       	st	-Z, r24
     726:	81 e2       	ldi	r24, 0x21	; 33
     728:	82 93       	st	-Z, r24
     72a:	92 93       	st	-Z, r25
     72c:	83 e2       	ldi	r24, 0x23	; 35
     72e:	82 93       	st	-Z, r24
     730:	42 93       	st	-Z, r20
     732:	52 93       	st	-Z, r21
     734:	86 e2       	ldi	r24, 0x26	; 38
     736:	82 93       	st	-Z, r24
     738:	87 e2       	ldi	r24, 0x27	; 39
     73a:	82 93       	st	-Z, r24
     73c:	88 e2       	ldi	r24, 0x28	; 40
     73e:	82 93       	st	-Z, r24
     740:	89 e2       	ldi	r24, 0x29	; 41
     742:	82 93       	st	-Z, r24
     744:	80 e3       	ldi	r24, 0x30	; 48
     746:	82 93       	st	-Z, r24
     748:	81 e3       	ldi	r24, 0x31	; 49
     74a:	82 93       	st	-Z, r24
     74c:	9f 01       	movw	r18, r30
     74e:	21 50       	subi	r18, 0x01	; 1
     750:	30 40       	sbci	r19, 0x00	; 0
     752:	c9 01       	movw	r24, r18
     754:	08 95       	ret

00000756 <xPortStartScheduler>:
     756:	1b bc       	out	0x2b, r1	; 43
     758:	8c e7       	ldi	r24, 0x7C	; 124
     75a:	8a bd       	out	0x2a, r24	; 42
     75c:	8b e0       	ldi	r24, 0x0B	; 11
     75e:	8e bd       	out	0x2e, r24	; 46
     760:	89 b7       	in	r24, 0x39	; 57
     762:	80 61       	ori	r24, 0x10	; 16
     764:	89 bf       	out	0x39, r24	; 57
     766:	a0 91 50 03 	lds	r26, 0x0350
     76a:	b0 91 51 03 	lds	r27, 0x0351
     76e:	cd 91       	ld	r28, X+
     770:	cd bf       	out	0x3d, r28	; 61
     772:	dd 91       	ld	r29, X+
     774:	de bf       	out	0x3e, r29	; 62
     776:	ff 91       	pop	r31
     778:	ef 91       	pop	r30
     77a:	df 91       	pop	r29
     77c:	cf 91       	pop	r28
     77e:	bf 91       	pop	r27
     780:	af 91       	pop	r26
     782:	9f 91       	pop	r25
     784:	8f 91       	pop	r24
     786:	7f 91       	pop	r23
     788:	6f 91       	pop	r22
     78a:	5f 91       	pop	r21
     78c:	4f 91       	pop	r20
     78e:	3f 91       	pop	r19
     790:	2f 91       	pop	r18
     792:	1f 91       	pop	r17
     794:	0f 91       	pop	r16
     796:	ff 90       	pop	r15
     798:	ef 90       	pop	r14
     79a:	df 90       	pop	r13
     79c:	cf 90       	pop	r12
     79e:	bf 90       	pop	r11
     7a0:	af 90       	pop	r10
     7a2:	9f 90       	pop	r9
     7a4:	8f 90       	pop	r8
     7a6:	7f 90       	pop	r7
     7a8:	6f 90       	pop	r6
     7aa:	5f 90       	pop	r5
     7ac:	4f 90       	pop	r4
     7ae:	3f 90       	pop	r3
     7b0:	2f 90       	pop	r2
     7b2:	1f 90       	pop	r1
     7b4:	0f 90       	pop	r0
     7b6:	0f be       	out	0x3f, r0	; 63
     7b8:	0f 90       	pop	r0
     7ba:	08 95       	ret
     7bc:	81 e0       	ldi	r24, 0x01	; 1
     7be:	08 95       	ret

000007c0 <vPortEndScheduler>:
     7c0:	08 95       	ret

000007c2 <vPortYield>:
     7c2:	0f 92       	push	r0
     7c4:	0f b6       	in	r0, 0x3f	; 63
     7c6:	f8 94       	cli
     7c8:	0f 92       	push	r0
     7ca:	1f 92       	push	r1
     7cc:	11 24       	eor	r1, r1
     7ce:	2f 92       	push	r2
     7d0:	3f 92       	push	r3
     7d2:	4f 92       	push	r4
     7d4:	5f 92       	push	r5
     7d6:	6f 92       	push	r6
     7d8:	7f 92       	push	r7
     7da:	8f 92       	push	r8
     7dc:	9f 92       	push	r9
     7de:	af 92       	push	r10
     7e0:	bf 92       	push	r11
     7e2:	cf 92       	push	r12
     7e4:	df 92       	push	r13
     7e6:	ef 92       	push	r14
     7e8:	ff 92       	push	r15
     7ea:	0f 93       	push	r16
     7ec:	1f 93       	push	r17
     7ee:	2f 93       	push	r18
     7f0:	3f 93       	push	r19
     7f2:	4f 93       	push	r20
     7f4:	5f 93       	push	r21
     7f6:	6f 93       	push	r22
     7f8:	7f 93       	push	r23
     7fa:	8f 93       	push	r24
     7fc:	9f 93       	push	r25
     7fe:	af 93       	push	r26
     800:	bf 93       	push	r27
     802:	cf 93       	push	r28
     804:	df 93       	push	r29
     806:	ef 93       	push	r30
     808:	ff 93       	push	r31
     80a:	a0 91 50 03 	lds	r26, 0x0350
     80e:	b0 91 51 03 	lds	r27, 0x0351
     812:	0d b6       	in	r0, 0x3d	; 61
     814:	0d 92       	st	X+, r0
     816:	0e b6       	in	r0, 0x3e	; 62
     818:	0d 92       	st	X+, r0
     81a:	0e 94 2f 0b 	call	0x165e	; 0x165e <vTaskSwitchContext>
     81e:	a0 91 50 03 	lds	r26, 0x0350
     822:	b0 91 51 03 	lds	r27, 0x0351
     826:	cd 91       	ld	r28, X+
     828:	cd bf       	out	0x3d, r28	; 61
     82a:	dd 91       	ld	r29, X+
     82c:	de bf       	out	0x3e, r29	; 62
     82e:	ff 91       	pop	r31
     830:	ef 91       	pop	r30
     832:	df 91       	pop	r29
     834:	cf 91       	pop	r28
     836:	bf 91       	pop	r27
     838:	af 91       	pop	r26
     83a:	9f 91       	pop	r25
     83c:	8f 91       	pop	r24
     83e:	7f 91       	pop	r23
     840:	6f 91       	pop	r22
     842:	5f 91       	pop	r21
     844:	4f 91       	pop	r20
     846:	3f 91       	pop	r19
     848:	2f 91       	pop	r18
     84a:	1f 91       	pop	r17
     84c:	0f 91       	pop	r16
     84e:	ff 90       	pop	r15
     850:	ef 90       	pop	r14
     852:	df 90       	pop	r13
     854:	cf 90       	pop	r12
     856:	bf 90       	pop	r11
     858:	af 90       	pop	r10
     85a:	9f 90       	pop	r9
     85c:	8f 90       	pop	r8
     85e:	7f 90       	pop	r7
     860:	6f 90       	pop	r6
     862:	5f 90       	pop	r5
     864:	4f 90       	pop	r4
     866:	3f 90       	pop	r3
     868:	2f 90       	pop	r2
     86a:	1f 90       	pop	r1
     86c:	0f 90       	pop	r0
     86e:	0f be       	out	0x3f, r0	; 63
     870:	0f 90       	pop	r0
     872:	08 95       	ret

00000874 <vPortYieldFromTick>:
     874:	0f 92       	push	r0
     876:	0f b6       	in	r0, 0x3f	; 63
     878:	f8 94       	cli
     87a:	0f 92       	push	r0
     87c:	1f 92       	push	r1
     87e:	11 24       	eor	r1, r1
     880:	2f 92       	push	r2
     882:	3f 92       	push	r3
     884:	4f 92       	push	r4
     886:	5f 92       	push	r5
     888:	6f 92       	push	r6
     88a:	7f 92       	push	r7
     88c:	8f 92       	push	r8
     88e:	9f 92       	push	r9
     890:	af 92       	push	r10
     892:	bf 92       	push	r11
     894:	cf 92       	push	r12
     896:	df 92       	push	r13
     898:	ef 92       	push	r14
     89a:	ff 92       	push	r15
     89c:	0f 93       	push	r16
     89e:	1f 93       	push	r17
     8a0:	2f 93       	push	r18
     8a2:	3f 93       	push	r19
     8a4:	4f 93       	push	r20
     8a6:	5f 93       	push	r21
     8a8:	6f 93       	push	r22
     8aa:	7f 93       	push	r23
     8ac:	8f 93       	push	r24
     8ae:	9f 93       	push	r25
     8b0:	af 93       	push	r26
     8b2:	bf 93       	push	r27
     8b4:	cf 93       	push	r28
     8b6:	df 93       	push	r29
     8b8:	ef 93       	push	r30
     8ba:	ff 93       	push	r31
     8bc:	a0 91 50 03 	lds	r26, 0x0350
     8c0:	b0 91 51 03 	lds	r27, 0x0351
     8c4:	0d b6       	in	r0, 0x3d	; 61
     8c6:	0d 92       	st	X+, r0
     8c8:	0e b6       	in	r0, 0x3e	; 62
     8ca:	0d 92       	st	X+, r0
     8cc:	0e 94 7a 09 	call	0x12f4	; 0x12f4 <vTaskIncrementTick>
     8d0:	0e 94 2f 0b 	call	0x165e	; 0x165e <vTaskSwitchContext>
     8d4:	a0 91 50 03 	lds	r26, 0x0350
     8d8:	b0 91 51 03 	lds	r27, 0x0351
     8dc:	cd 91       	ld	r28, X+
     8de:	cd bf       	out	0x3d, r28	; 61
     8e0:	dd 91       	ld	r29, X+
     8e2:	de bf       	out	0x3e, r29	; 62
     8e4:	ff 91       	pop	r31
     8e6:	ef 91       	pop	r30
     8e8:	df 91       	pop	r29
     8ea:	cf 91       	pop	r28
     8ec:	bf 91       	pop	r27
     8ee:	af 91       	pop	r26
     8f0:	9f 91       	pop	r25
     8f2:	8f 91       	pop	r24
     8f4:	7f 91       	pop	r23
     8f6:	6f 91       	pop	r22
     8f8:	5f 91       	pop	r21
     8fa:	4f 91       	pop	r20
     8fc:	3f 91       	pop	r19
     8fe:	2f 91       	pop	r18
     900:	1f 91       	pop	r17
     902:	0f 91       	pop	r16
     904:	ff 90       	pop	r15
     906:	ef 90       	pop	r14
     908:	df 90       	pop	r13
     90a:	cf 90       	pop	r12
     90c:	bf 90       	pop	r11
     90e:	af 90       	pop	r10
     910:	9f 90       	pop	r9
     912:	8f 90       	pop	r8
     914:	7f 90       	pop	r7
     916:	6f 90       	pop	r6
     918:	5f 90       	pop	r5
     91a:	4f 90       	pop	r4
     91c:	3f 90       	pop	r3
     91e:	2f 90       	pop	r2
     920:	1f 90       	pop	r1
     922:	0f 90       	pop	r0
     924:	0f be       	out	0x3f, r0	; 63
     926:	0f 90       	pop	r0
     928:	08 95       	ret

0000092a <__vector_7>:
     92a:	0e 94 3a 04 	call	0x874	; 0x874 <vPortYieldFromTick>
     92e:	18 95       	reti

00000930 <prvUnlockQueue>:
     930:	0f 93       	push	r16
     932:	1f 93       	push	r17
     934:	cf 93       	push	r28
     936:	df 93       	push	r29
     938:	ec 01       	movw	r28, r24
     93a:	0f b6       	in	r0, 0x3f	; 63
     93c:	f8 94       	cli
     93e:	0f 92       	push	r0
     940:	8c 01       	movw	r16, r24
     942:	0f 5e       	subi	r16, 0xEF	; 239
     944:	1f 4f       	sbci	r17, 0xFF	; 255
     946:	0d c0       	rjmp	.+26     	; 0x962 <prvUnlockQueue+0x32>
     948:	89 89       	ldd	r24, Y+17	; 0x11
     94a:	88 23       	and	r24, r24
     94c:	69 f0       	breq	.+26     	; 0x968 <prvUnlockQueue+0x38>
     94e:	c8 01       	movw	r24, r16
     950:	0e 94 9e 0b 	call	0x173c	; 0x173c <xTaskRemoveFromEventList>
     954:	88 23       	and	r24, r24
     956:	11 f0       	breq	.+4      	; 0x95c <prvUnlockQueue+0x2c>
     958:	0e 94 26 0c 	call	0x184c	; 0x184c <vTaskMissedYield>
     95c:	8e 8d       	ldd	r24, Y+30	; 0x1e
     95e:	81 50       	subi	r24, 0x01	; 1
     960:	8e 8f       	std	Y+30, r24	; 0x1e
     962:	8e 8d       	ldd	r24, Y+30	; 0x1e
     964:	18 16       	cp	r1, r24
     966:	84 f3       	brlt	.-32     	; 0x948 <prvUnlockQueue+0x18>
     968:	8f ef       	ldi	r24, 0xFF	; 255
     96a:	8e 8f       	std	Y+30, r24	; 0x1e
     96c:	0f 90       	pop	r0
     96e:	0f be       	out	0x3f, r0	; 63
     970:	0f b6       	in	r0, 0x3f	; 63
     972:	f8 94       	cli
     974:	0f 92       	push	r0
     976:	8e 01       	movw	r16, r28
     978:	08 5f       	subi	r16, 0xF8	; 248
     97a:	1f 4f       	sbci	r17, 0xFF	; 255
     97c:	0d c0       	rjmp	.+26     	; 0x998 <prvUnlockQueue+0x68>
     97e:	88 85       	ldd	r24, Y+8	; 0x08
     980:	88 23       	and	r24, r24
     982:	69 f0       	breq	.+26     	; 0x99e <prvUnlockQueue+0x6e>
     984:	c8 01       	movw	r24, r16
     986:	0e 94 9e 0b 	call	0x173c	; 0x173c <xTaskRemoveFromEventList>
     98a:	88 23       	and	r24, r24
     98c:	11 f0       	breq	.+4      	; 0x992 <prvUnlockQueue+0x62>
     98e:	0e 94 26 0c 	call	0x184c	; 0x184c <vTaskMissedYield>
     992:	8d 8d       	ldd	r24, Y+29	; 0x1d
     994:	81 50       	subi	r24, 0x01	; 1
     996:	8d 8f       	std	Y+29, r24	; 0x1d
     998:	8d 8d       	ldd	r24, Y+29	; 0x1d
     99a:	18 16       	cp	r1, r24
     99c:	84 f3       	brlt	.-32     	; 0x97e <prvUnlockQueue+0x4e>
     99e:	8f ef       	ldi	r24, 0xFF	; 255
     9a0:	8d 8f       	std	Y+29, r24	; 0x1d
     9a2:	0f 90       	pop	r0
     9a4:	0f be       	out	0x3f, r0	; 63
     9a6:	df 91       	pop	r29
     9a8:	cf 91       	pop	r28
     9aa:	1f 91       	pop	r17
     9ac:	0f 91       	pop	r16
     9ae:	08 95       	ret

000009b0 <xQueueCreate>:
     9b0:	af 92       	push	r10
     9b2:	bf 92       	push	r11
     9b4:	cf 92       	push	r12
     9b6:	df 92       	push	r13
     9b8:	ef 92       	push	r14
     9ba:	ff 92       	push	r15
     9bc:	0f 93       	push	r16
     9be:	1f 93       	push	r17
     9c0:	cf 93       	push	r28
     9c2:	df 93       	push	r29
     9c4:	b8 2e       	mov	r11, r24
     9c6:	a6 2e       	mov	r10, r22
     9c8:	88 23       	and	r24, r24
     9ca:	09 f4       	brne	.+2      	; 0x9ce <xQueueCreate+0x1e>
     9cc:	43 c0       	rjmp	.+134    	; 0xa54 <xQueueCreate+0xa4>
     9ce:	8f e1       	ldi	r24, 0x1F	; 31
     9d0:	90 e0       	ldi	r25, 0x00	; 0
     9d2:	0e 94 21 02 	call	0x442	; 0x442 <pvPortMalloc>
     9d6:	e8 2e       	mov	r14, r24
     9d8:	e7 01       	movw	r28, r14
     9da:	7e 01       	movw	r14, r28
     9dc:	f9 2e       	mov	r15, r25
     9de:	e7 01       	movw	r28, r14
     9e0:	20 97       	sbiw	r28, 0x00	; 0
     9e2:	c1 f1       	breq	.+112    	; 0xa54 <xQueueCreate+0xa4>
     9e4:	0b 2d       	mov	r16, r11
     9e6:	10 e0       	ldi	r17, 0x00	; 0
     9e8:	ca 2c       	mov	r12, r10
     9ea:	dd 24       	eor	r13, r13
     9ec:	c0 9e       	mul	r12, r16
     9ee:	70 01       	movw	r14, r0
     9f0:	c1 9e       	mul	r12, r17
     9f2:	f0 0c       	add	r15, r0
     9f4:	d0 9e       	mul	r13, r16
     9f6:	f0 0c       	add	r15, r0
     9f8:	11 24       	eor	r1, r1
     9fa:	c7 01       	movw	r24, r14
     9fc:	01 96       	adiw	r24, 0x01	; 1
     9fe:	0e 94 21 02 	call	0x442	; 0x442 <pvPortMalloc>
     a02:	99 83       	std	Y+1, r25	; 0x01
     a04:	88 83       	st	Y, r24
     a06:	00 97       	sbiw	r24, 0x00	; 0
     a08:	11 f1       	breq	.+68     	; 0xa4e <xQueueCreate+0x9e>
     a0a:	e8 0e       	add	r14, r24
     a0c:	f9 1e       	adc	r15, r25
     a0e:	fb 82       	std	Y+3, r15	; 0x03
     a10:	ea 82       	std	Y+2, r14	; 0x02
     a12:	1a 8e       	std	Y+26, r1	; 0x1a
     a14:	9d 83       	std	Y+5, r25	; 0x05
     a16:	8c 83       	std	Y+4, r24	; 0x04
     a18:	01 50       	subi	r16, 0x01	; 1
     a1a:	10 40       	sbci	r17, 0x00	; 0
     a1c:	0c 9d       	mul	r16, r12
     a1e:	a0 01       	movw	r20, r0
     a20:	0d 9d       	mul	r16, r13
     a22:	50 0d       	add	r21, r0
     a24:	1c 9d       	mul	r17, r12
     a26:	50 0d       	add	r21, r0
     a28:	11 24       	eor	r1, r1
     a2a:	48 0f       	add	r20, r24
     a2c:	59 1f       	adc	r21, r25
     a2e:	5f 83       	std	Y+7, r21	; 0x07
     a30:	4e 83       	std	Y+6, r20	; 0x06
     a32:	bb 8e       	std	Y+27, r11	; 0x1b
     a34:	ac 8e       	std	Y+28, r10	; 0x1c
     a36:	8f ef       	ldi	r24, 0xFF	; 255
     a38:	8d 8f       	std	Y+29, r24	; 0x1d
     a3a:	8e 8f       	std	Y+30, r24	; 0x1e
     a3c:	ce 01       	movw	r24, r28
     a3e:	08 96       	adiw	r24, 0x08	; 8
     a40:	0e 94 76 02 	call	0x4ec	; 0x4ec <vListInitialise>
     a44:	ce 01       	movw	r24, r28
     a46:	41 96       	adiw	r24, 0x11	; 17
     a48:	0e 94 76 02 	call	0x4ec	; 0x4ec <vListInitialise>
     a4c:	05 c0       	rjmp	.+10     	; 0xa58 <xQueueCreate+0xa8>
     a4e:	ce 01       	movw	r24, r28
     a50:	0e 94 4a 02 	call	0x494	; 0x494 <vPortFree>
     a54:	c0 e0       	ldi	r28, 0x00	; 0
     a56:	d0 e0       	ldi	r29, 0x00	; 0
     a58:	ce 01       	movw	r24, r28
     a5a:	df 91       	pop	r29
     a5c:	cf 91       	pop	r28
     a5e:	1f 91       	pop	r17
     a60:	0f 91       	pop	r16
     a62:	ff 90       	pop	r15
     a64:	ef 90       	pop	r14
     a66:	df 90       	pop	r13
     a68:	cf 90       	pop	r12
     a6a:	bf 90       	pop	r11
     a6c:	af 90       	pop	r10
     a6e:	08 95       	ret

00000a70 <xQueueGenericSend>:
     a70:	7f 92       	push	r7
     a72:	8f 92       	push	r8
     a74:	9f 92       	push	r9
     a76:	af 92       	push	r10
     a78:	bf 92       	push	r11
     a7a:	cf 92       	push	r12
     a7c:	df 92       	push	r13
     a7e:	ef 92       	push	r14
     a80:	ff 92       	push	r15
     a82:	0f 93       	push	r16
     a84:	1f 93       	push	r17
     a86:	df 93       	push	r29
     a88:	cf 93       	push	r28
     a8a:	00 d0       	rcall	.+0      	; 0xa8c <xQueueGenericSend+0x1c>
     a8c:	00 d0       	rcall	.+0      	; 0xa8e <xQueueGenericSend+0x1e>
     a8e:	0f 92       	push	r0
     a90:	cd b7       	in	r28, 0x3d	; 61
     a92:	de b7       	in	r29, 0x3e	; 62
     a94:	8c 01       	movw	r16, r24
     a96:	6b 01       	movw	r12, r22
     a98:	5d 83       	std	Y+5, r21	; 0x05
     a9a:	4c 83       	std	Y+4, r20	; 0x04
     a9c:	72 2e       	mov	r7, r18
     a9e:	20 e0       	ldi	r18, 0x00	; 0
     aa0:	7e 01       	movw	r14, r28
     aa2:	08 94       	sec
     aa4:	e1 1c       	adc	r14, r1
     aa6:	f1 1c       	adc	r15, r1
     aa8:	94 e0       	ldi	r25, 0x04	; 4
     aaa:	a9 2e       	mov	r10, r25
     aac:	b1 2c       	mov	r11, r1
     aae:	ac 0e       	add	r10, r28
     ab0:	bd 1e       	adc	r11, r29
     ab2:	88 e0       	ldi	r24, 0x08	; 8
     ab4:	88 2e       	mov	r8, r24
     ab6:	91 2c       	mov	r9, r1
     ab8:	80 0e       	add	r8, r16
     aba:	91 1e       	adc	r9, r17
     abc:	01 c0       	rjmp	.+2      	; 0xac0 <xQueueGenericSend+0x50>
     abe:	21 e0       	ldi	r18, 0x01	; 1
     ac0:	0f b6       	in	r0, 0x3f	; 63
     ac2:	f8 94       	cli
     ac4:	0f 92       	push	r0
     ac6:	f8 01       	movw	r30, r16
     ac8:	92 8d       	ldd	r25, Z+26	; 0x1a
     aca:	83 8d       	ldd	r24, Z+27	; 0x1b
     acc:	98 17       	cp	r25, r24
     ace:	08 f0       	brcs	.+2      	; 0xad2 <xQueueGenericSend+0x62>
     ad0:	4e c0       	rjmp	.+156    	; 0xb6e <xQueueGenericSend+0xfe>
     ad2:	44 8d       	ldd	r20, Z+28	; 0x1c
     ad4:	44 23       	and	r20, r20
     ad6:	c1 f1       	breq	.+112    	; 0xb48 <xQueueGenericSend+0xd8>
     ad8:	77 20       	and	r7, r7
     ada:	c1 f4       	brne	.+48     	; 0xb0c <xQueueGenericSend+0x9c>
     adc:	84 81       	ldd	r24, Z+4	; 0x04
     ade:	95 81       	ldd	r25, Z+5	; 0x05
     ae0:	b6 01       	movw	r22, r12
     ae2:	50 e0       	ldi	r21, 0x00	; 0
     ae4:	0e 94 4f 0c 	call	0x189e	; 0x189e <memcpy>
     ae8:	f8 01       	movw	r30, r16
     aea:	24 8d       	ldd	r18, Z+28	; 0x1c
     aec:	84 81       	ldd	r24, Z+4	; 0x04
     aee:	95 81       	ldd	r25, Z+5	; 0x05
     af0:	82 0f       	add	r24, r18
     af2:	91 1d       	adc	r25, r1
     af4:	95 83       	std	Z+5, r25	; 0x05
     af6:	84 83       	std	Z+4, r24	; 0x04
     af8:	22 81       	ldd	r18, Z+2	; 0x02
     afa:	33 81       	ldd	r19, Z+3	; 0x03
     afc:	82 17       	cp	r24, r18
     afe:	93 07       	cpc	r25, r19
     b00:	18 f1       	brcs	.+70     	; 0xb48 <xQueueGenericSend+0xd8>
     b02:	80 81       	ld	r24, Z
     b04:	91 81       	ldd	r25, Z+1	; 0x01
     b06:	95 83       	std	Z+5, r25	; 0x05
     b08:	84 83       	std	Z+4, r24	; 0x04
     b0a:	1e c0       	rjmp	.+60     	; 0xb48 <xQueueGenericSend+0xd8>
     b0c:	f8 01       	movw	r30, r16
     b0e:	86 81       	ldd	r24, Z+6	; 0x06
     b10:	97 81       	ldd	r25, Z+7	; 0x07
     b12:	b6 01       	movw	r22, r12
     b14:	50 e0       	ldi	r21, 0x00	; 0
     b16:	0e 94 4f 0c 	call	0x189e	; 0x189e <memcpy>
     b1a:	f8 01       	movw	r30, r16
     b1c:	24 8d       	ldd	r18, Z+28	; 0x1c
     b1e:	30 e0       	ldi	r19, 0x00	; 0
     b20:	30 95       	com	r19
     b22:	21 95       	neg	r18
     b24:	3f 4f       	sbci	r19, 0xFF	; 255
     b26:	86 81       	ldd	r24, Z+6	; 0x06
     b28:	97 81       	ldd	r25, Z+7	; 0x07
     b2a:	82 0f       	add	r24, r18
     b2c:	93 1f       	adc	r25, r19
     b2e:	97 83       	std	Z+7, r25	; 0x07
     b30:	86 83       	std	Z+6, r24	; 0x06
     b32:	40 81       	ld	r20, Z
     b34:	51 81       	ldd	r21, Z+1	; 0x01
     b36:	84 17       	cp	r24, r20
     b38:	95 07       	cpc	r25, r21
     b3a:	30 f4       	brcc	.+12     	; 0xb48 <xQueueGenericSend+0xd8>
     b3c:	82 81       	ldd	r24, Z+2	; 0x02
     b3e:	93 81       	ldd	r25, Z+3	; 0x03
     b40:	82 0f       	add	r24, r18
     b42:	93 1f       	adc	r25, r19
     b44:	97 83       	std	Z+7, r25	; 0x07
     b46:	86 83       	std	Z+6, r24	; 0x06
     b48:	f8 01       	movw	r30, r16
     b4a:	82 8d       	ldd	r24, Z+26	; 0x1a
     b4c:	8f 5f       	subi	r24, 0xFF	; 255
     b4e:	82 8f       	std	Z+26, r24	; 0x1a
     b50:	81 89       	ldd	r24, Z+17	; 0x11
     b52:	88 23       	and	r24, r24
     b54:	41 f0       	breq	.+16     	; 0xb66 <xQueueGenericSend+0xf6>
     b56:	c8 01       	movw	r24, r16
     b58:	41 96       	adiw	r24, 0x11	; 17
     b5a:	0e 94 9e 0b 	call	0x173c	; 0x173c <xTaskRemoveFromEventList>
     b5e:	81 30       	cpi	r24, 0x01	; 1
     b60:	11 f4       	brne	.+4      	; 0xb66 <xQueueGenericSend+0xf6>
     b62:	0e 94 e1 03 	call	0x7c2	; 0x7c2 <vPortYield>
     b66:	0f 90       	pop	r0
     b68:	0f be       	out	0x3f, r0	; 63
     b6a:	81 e0       	ldi	r24, 0x01	; 1
     b6c:	4c c0       	rjmp	.+152    	; 0xc06 <xQueueGenericSend+0x196>
     b6e:	8c 81       	ldd	r24, Y+4	; 0x04
     b70:	9d 81       	ldd	r25, Y+5	; 0x05
     b72:	00 97       	sbiw	r24, 0x00	; 0
     b74:	19 f4       	brne	.+6      	; 0xb7c <xQueueGenericSend+0x10c>
     b76:	0f 90       	pop	r0
     b78:	0f be       	out	0x3f, r0	; 63
     b7a:	44 c0       	rjmp	.+136    	; 0xc04 <xQueueGenericSend+0x194>
     b7c:	22 23       	and	r18, r18
     b7e:	19 f4       	brne	.+6      	; 0xb86 <xQueueGenericSend+0x116>
     b80:	c7 01       	movw	r24, r14
     b82:	0e 94 e0 0b 	call	0x17c0	; 0x17c0 <vTaskSetTimeOutState>
     b86:	0f 90       	pop	r0
     b88:	0f be       	out	0x3f, r0	; 63
     b8a:	0e 94 60 09 	call	0x12c0	; 0x12c0 <vTaskSuspendAll>
     b8e:	0f b6       	in	r0, 0x3f	; 63
     b90:	f8 94       	cli
     b92:	0f 92       	push	r0
     b94:	f8 01       	movw	r30, r16
     b96:	85 8d       	ldd	r24, Z+29	; 0x1d
     b98:	8f 3f       	cpi	r24, 0xFF	; 255
     b9a:	09 f4       	brne	.+2      	; 0xb9e <xQueueGenericSend+0x12e>
     b9c:	15 8e       	std	Z+29, r1	; 0x1d
     b9e:	f8 01       	movw	r30, r16
     ba0:	86 8d       	ldd	r24, Z+30	; 0x1e
     ba2:	8f 3f       	cpi	r24, 0xFF	; 255
     ba4:	09 f4       	brne	.+2      	; 0xba8 <xQueueGenericSend+0x138>
     ba6:	16 8e       	std	Z+30, r1	; 0x1e
     ba8:	0f 90       	pop	r0
     baa:	0f be       	out	0x3f, r0	; 63
     bac:	c7 01       	movw	r24, r14
     bae:	b5 01       	movw	r22, r10
     bb0:	0e 94 eb 0b 	call	0x17d6	; 0x17d6 <xTaskCheckForTimeOut>
     bb4:	88 23       	and	r24, r24
     bb6:	09 f5       	brne	.+66     	; 0xbfa <xQueueGenericSend+0x18a>
     bb8:	0f b6       	in	r0, 0x3f	; 63
     bba:	f8 94       	cli
     bbc:	0f 92       	push	r0
     bbe:	f8 01       	movw	r30, r16
     bc0:	92 8d       	ldd	r25, Z+26	; 0x1a
     bc2:	0f 90       	pop	r0
     bc4:	0f be       	out	0x3f, r0	; 63
     bc6:	f8 01       	movw	r30, r16
     bc8:	83 8d       	ldd	r24, Z+27	; 0x1b
     bca:	98 17       	cp	r25, r24
     bcc:	81 f4       	brne	.+32     	; 0xbee <xQueueGenericSend+0x17e>
     bce:	6c 81       	ldd	r22, Y+4	; 0x04
     bd0:	7d 81       	ldd	r23, Y+5	; 0x05
     bd2:	c4 01       	movw	r24, r8
     bd4:	0e 94 81 0b 	call	0x1702	; 0x1702 <vTaskPlaceOnEventList>
     bd8:	c8 01       	movw	r24, r16
     bda:	0e 94 98 04 	call	0x930	; 0x930 <prvUnlockQueue>
     bde:	0e 94 1c 0a 	call	0x1438	; 0x1438 <xTaskResumeAll>
     be2:	88 23       	and	r24, r24
     be4:	09 f0       	breq	.+2      	; 0xbe8 <xQueueGenericSend+0x178>
     be6:	6b cf       	rjmp	.-298    	; 0xabe <xQueueGenericSend+0x4e>
     be8:	0e 94 e1 03 	call	0x7c2	; 0x7c2 <vPortYield>
     bec:	68 cf       	rjmp	.-304    	; 0xabe <xQueueGenericSend+0x4e>
     bee:	c8 01       	movw	r24, r16
     bf0:	0e 94 98 04 	call	0x930	; 0x930 <prvUnlockQueue>
     bf4:	0e 94 1c 0a 	call	0x1438	; 0x1438 <xTaskResumeAll>
     bf8:	62 cf       	rjmp	.-316    	; 0xabe <xQueueGenericSend+0x4e>
     bfa:	c8 01       	movw	r24, r16
     bfc:	0e 94 98 04 	call	0x930	; 0x930 <prvUnlockQueue>
     c00:	0e 94 1c 0a 	call	0x1438	; 0x1438 <xTaskResumeAll>
     c04:	80 e0       	ldi	r24, 0x00	; 0
     c06:	0f 90       	pop	r0
     c08:	0f 90       	pop	r0
     c0a:	0f 90       	pop	r0
     c0c:	0f 90       	pop	r0
     c0e:	0f 90       	pop	r0
     c10:	cf 91       	pop	r28
     c12:	df 91       	pop	r29
     c14:	1f 91       	pop	r17
     c16:	0f 91       	pop	r16
     c18:	ff 90       	pop	r15
     c1a:	ef 90       	pop	r14
     c1c:	df 90       	pop	r13
     c1e:	cf 90       	pop	r12
     c20:	bf 90       	pop	r11
     c22:	af 90       	pop	r10
     c24:	9f 90       	pop	r9
     c26:	8f 90       	pop	r8
     c28:	7f 90       	pop	r7
     c2a:	08 95       	ret

00000c2c <xQueueGenericSendFromISR>:
     c2c:	0f 93       	push	r16
     c2e:	1f 93       	push	r17
     c30:	cf 93       	push	r28
     c32:	df 93       	push	r29
     c34:	ec 01       	movw	r28, r24
     c36:	8a 01       	movw	r16, r20
     c38:	9a 8d       	ldd	r25, Y+26	; 0x1a
     c3a:	8b 8d       	ldd	r24, Y+27	; 0x1b
     c3c:	98 17       	cp	r25, r24
     c3e:	08 f0       	brcs	.+2      	; 0xc42 <xQueueGenericSendFromISR+0x16>
     c40:	4c c0       	rjmp	.+152    	; 0xcda <xQueueGenericSendFromISR+0xae>
     c42:	4c 8d       	ldd	r20, Y+28	; 0x1c
     c44:	44 23       	and	r20, r20
     c46:	99 f1       	breq	.+102    	; 0xcae <xQueueGenericSendFromISR+0x82>
     c48:	22 23       	and	r18, r18
     c4a:	b1 f4       	brne	.+44     	; 0xc78 <xQueueGenericSendFromISR+0x4c>
     c4c:	8c 81       	ldd	r24, Y+4	; 0x04
     c4e:	9d 81       	ldd	r25, Y+5	; 0x05
     c50:	50 e0       	ldi	r21, 0x00	; 0
     c52:	0e 94 4f 0c 	call	0x189e	; 0x189e <memcpy>
     c56:	2c 8d       	ldd	r18, Y+28	; 0x1c
     c58:	8c 81       	ldd	r24, Y+4	; 0x04
     c5a:	9d 81       	ldd	r25, Y+5	; 0x05
     c5c:	82 0f       	add	r24, r18
     c5e:	91 1d       	adc	r25, r1
     c60:	9d 83       	std	Y+5, r25	; 0x05
     c62:	8c 83       	std	Y+4, r24	; 0x04
     c64:	2a 81       	ldd	r18, Y+2	; 0x02
     c66:	3b 81       	ldd	r19, Y+3	; 0x03
     c68:	82 17       	cp	r24, r18
     c6a:	93 07       	cpc	r25, r19
     c6c:	00 f1       	brcs	.+64     	; 0xcae <xQueueGenericSendFromISR+0x82>
     c6e:	88 81       	ld	r24, Y
     c70:	99 81       	ldd	r25, Y+1	; 0x01
     c72:	9d 83       	std	Y+5, r25	; 0x05
     c74:	8c 83       	std	Y+4, r24	; 0x04
     c76:	1b c0       	rjmp	.+54     	; 0xcae <xQueueGenericSendFromISR+0x82>
     c78:	8e 81       	ldd	r24, Y+6	; 0x06
     c7a:	9f 81       	ldd	r25, Y+7	; 0x07
     c7c:	50 e0       	ldi	r21, 0x00	; 0
     c7e:	0e 94 4f 0c 	call	0x189e	; 0x189e <memcpy>
     c82:	2c 8d       	ldd	r18, Y+28	; 0x1c
     c84:	30 e0       	ldi	r19, 0x00	; 0
     c86:	30 95       	com	r19
     c88:	21 95       	neg	r18
     c8a:	3f 4f       	sbci	r19, 0xFF	; 255
     c8c:	8e 81       	ldd	r24, Y+6	; 0x06
     c8e:	9f 81       	ldd	r25, Y+7	; 0x07
     c90:	82 0f       	add	r24, r18
     c92:	93 1f       	adc	r25, r19
     c94:	9f 83       	std	Y+7, r25	; 0x07
     c96:	8e 83       	std	Y+6, r24	; 0x06
     c98:	48 81       	ld	r20, Y
     c9a:	59 81       	ldd	r21, Y+1	; 0x01
     c9c:	84 17       	cp	r24, r20
     c9e:	95 07       	cpc	r25, r21
     ca0:	30 f4       	brcc	.+12     	; 0xcae <xQueueGenericSendFromISR+0x82>
     ca2:	8a 81       	ldd	r24, Y+2	; 0x02
     ca4:	9b 81       	ldd	r25, Y+3	; 0x03
     ca6:	82 0f       	add	r24, r18
     ca8:	93 1f       	adc	r25, r19
     caa:	9f 83       	std	Y+7, r25	; 0x07
     cac:	8e 83       	std	Y+6, r24	; 0x06
     cae:	8a 8d       	ldd	r24, Y+26	; 0x1a
     cb0:	8f 5f       	subi	r24, 0xFF	; 255
     cb2:	8a 8f       	std	Y+26, r24	; 0x1a
     cb4:	8e 8d       	ldd	r24, Y+30	; 0x1e
     cb6:	8f 3f       	cpi	r24, 0xFF	; 255
     cb8:	69 f4       	brne	.+26     	; 0xcd4 <xQueueGenericSendFromISR+0xa8>
     cba:	89 89       	ldd	r24, Y+17	; 0x11
     cbc:	88 23       	and	r24, r24
     cbe:	79 f0       	breq	.+30     	; 0xcde <xQueueGenericSendFromISR+0xb2>
     cc0:	ce 01       	movw	r24, r28
     cc2:	41 96       	adiw	r24, 0x11	; 17
     cc4:	0e 94 9e 0b 	call	0x173c	; 0x173c <xTaskRemoveFromEventList>
     cc8:	88 23       	and	r24, r24
     cca:	49 f0       	breq	.+18     	; 0xcde <xQueueGenericSendFromISR+0xb2>
     ccc:	81 e0       	ldi	r24, 0x01	; 1
     cce:	f8 01       	movw	r30, r16
     cd0:	80 83       	st	Z, r24
     cd2:	06 c0       	rjmp	.+12     	; 0xce0 <xQueueGenericSendFromISR+0xb4>
     cd4:	8f 5f       	subi	r24, 0xFF	; 255
     cd6:	8e 8f       	std	Y+30, r24	; 0x1e
     cd8:	02 c0       	rjmp	.+4      	; 0xcde <xQueueGenericSendFromISR+0xb2>
     cda:	80 e0       	ldi	r24, 0x00	; 0
     cdc:	01 c0       	rjmp	.+2      	; 0xce0 <xQueueGenericSendFromISR+0xb4>
     cde:	81 e0       	ldi	r24, 0x01	; 1
     ce0:	df 91       	pop	r29
     ce2:	cf 91       	pop	r28
     ce4:	1f 91       	pop	r17
     ce6:	0f 91       	pop	r16
     ce8:	08 95       	ret

00000cea <xQueueGenericReceive>:
     cea:	7f 92       	push	r7
     cec:	8f 92       	push	r8
     cee:	9f 92       	push	r9
     cf0:	af 92       	push	r10
     cf2:	bf 92       	push	r11
     cf4:	cf 92       	push	r12
     cf6:	df 92       	push	r13
     cf8:	ef 92       	push	r14
     cfa:	ff 92       	push	r15
     cfc:	0f 93       	push	r16
     cfe:	1f 93       	push	r17
     d00:	df 93       	push	r29
     d02:	cf 93       	push	r28
     d04:	00 d0       	rcall	.+0      	; 0xd06 <xQueueGenericReceive+0x1c>
     d06:	00 d0       	rcall	.+0      	; 0xd08 <xQueueGenericReceive+0x1e>
     d08:	0f 92       	push	r0
     d0a:	cd b7       	in	r28, 0x3d	; 61
     d0c:	de b7       	in	r29, 0x3e	; 62
     d0e:	8c 01       	movw	r16, r24
     d10:	86 2e       	mov	r8, r22
     d12:	77 2e       	mov	r7, r23
     d14:	5d 83       	std	Y+5, r21	; 0x05
     d16:	4c 83       	std	Y+4, r20	; 0x04
     d18:	92 2e       	mov	r9, r18
     d1a:	20 e0       	ldi	r18, 0x00	; 0
     d1c:	7e 01       	movw	r14, r28
     d1e:	08 94       	sec
     d20:	e1 1c       	adc	r14, r1
     d22:	f1 1c       	adc	r15, r1
     d24:	44 e0       	ldi	r20, 0x04	; 4
     d26:	c4 2e       	mov	r12, r20
     d28:	d1 2c       	mov	r13, r1
     d2a:	cc 0e       	add	r12, r28
     d2c:	dd 1e       	adc	r13, r29
     d2e:	31 e1       	ldi	r19, 0x11	; 17
     d30:	a3 2e       	mov	r10, r19
     d32:	b1 2c       	mov	r11, r1
     d34:	a8 0e       	add	r10, r24
     d36:	b9 1e       	adc	r11, r25
     d38:	01 c0       	rjmp	.+2      	; 0xd3c <xQueueGenericReceive+0x52>
     d3a:	21 e0       	ldi	r18, 0x01	; 1
     d3c:	0f b6       	in	r0, 0x3f	; 63
     d3e:	f8 94       	cli
     d40:	0f 92       	push	r0
     d42:	f8 01       	movw	r30, r16
     d44:	82 8d       	ldd	r24, Z+26	; 0x1a
     d46:	88 23       	and	r24, r24
     d48:	09 f4       	brne	.+2      	; 0xd4c <xQueueGenericReceive+0x62>
     d4a:	3d c0       	rjmp	.+122    	; 0xdc6 <xQueueGenericReceive+0xdc>
     d4c:	e6 80       	ldd	r14, Z+6	; 0x06
     d4e:	f7 80       	ldd	r15, Z+7	; 0x07
     d50:	80 81       	ld	r24, Z
     d52:	91 81       	ldd	r25, Z+1	; 0x01
     d54:	00 97       	sbiw	r24, 0x00	; 0
     d56:	a9 f0       	breq	.+42     	; 0xd82 <xQueueGenericReceive+0x98>
     d58:	44 8d       	ldd	r20, Z+28	; 0x1c
     d5a:	97 01       	movw	r18, r14
     d5c:	24 0f       	add	r18, r20
     d5e:	31 1d       	adc	r19, r1
     d60:	37 83       	std	Z+7, r19	; 0x07
     d62:	26 83       	std	Z+6, r18	; 0x06
     d64:	62 81       	ldd	r22, Z+2	; 0x02
     d66:	73 81       	ldd	r23, Z+3	; 0x03
     d68:	26 17       	cp	r18, r22
     d6a:	37 07       	cpc	r19, r23
     d6c:	10 f0       	brcs	.+4      	; 0xd72 <xQueueGenericReceive+0x88>
     d6e:	97 83       	std	Z+7, r25	; 0x07
     d70:	86 83       	std	Z+6, r24	; 0x06
     d72:	f8 01       	movw	r30, r16
     d74:	66 81       	ldd	r22, Z+6	; 0x06
     d76:	77 81       	ldd	r23, Z+7	; 0x07
     d78:	88 2d       	mov	r24, r8
     d7a:	97 2d       	mov	r25, r7
     d7c:	50 e0       	ldi	r21, 0x00	; 0
     d7e:	0e 94 4f 0c 	call	0x189e	; 0x189e <memcpy>
     d82:	99 20       	and	r9, r9
     d84:	71 f4       	brne	.+28     	; 0xda2 <xQueueGenericReceive+0xb8>
     d86:	f8 01       	movw	r30, r16
     d88:	82 8d       	ldd	r24, Z+26	; 0x1a
     d8a:	81 50       	subi	r24, 0x01	; 1
     d8c:	82 8f       	std	Z+26, r24	; 0x1a
     d8e:	80 85       	ldd	r24, Z+8	; 0x08
     d90:	88 23       	and	r24, r24
     d92:	a9 f0       	breq	.+42     	; 0xdbe <xQueueGenericReceive+0xd4>
     d94:	c8 01       	movw	r24, r16
     d96:	08 96       	adiw	r24, 0x08	; 8
     d98:	0e 94 9e 0b 	call	0x173c	; 0x173c <xTaskRemoveFromEventList>
     d9c:	81 30       	cpi	r24, 0x01	; 1
     d9e:	79 f4       	brne	.+30     	; 0xdbe <xQueueGenericReceive+0xd4>
     da0:	0c c0       	rjmp	.+24     	; 0xdba <xQueueGenericReceive+0xd0>
     da2:	f8 01       	movw	r30, r16
     da4:	f7 82       	std	Z+7, r15	; 0x07
     da6:	e6 82       	std	Z+6, r14	; 0x06
     da8:	81 89       	ldd	r24, Z+17	; 0x11
     daa:	88 23       	and	r24, r24
     dac:	41 f0       	breq	.+16     	; 0xdbe <xQueueGenericReceive+0xd4>
     dae:	c8 01       	movw	r24, r16
     db0:	41 96       	adiw	r24, 0x11	; 17
     db2:	0e 94 9e 0b 	call	0x173c	; 0x173c <xTaskRemoveFromEventList>
     db6:	88 23       	and	r24, r24
     db8:	11 f0       	breq	.+4      	; 0xdbe <xQueueGenericReceive+0xd4>
     dba:	0e 94 e1 03 	call	0x7c2	; 0x7c2 <vPortYield>
     dbe:	0f 90       	pop	r0
     dc0:	0f be       	out	0x3f, r0	; 63
     dc2:	81 e0       	ldi	r24, 0x01	; 1
     dc4:	4a c0       	rjmp	.+148    	; 0xe5a <xQueueGenericReceive+0x170>
     dc6:	8c 81       	ldd	r24, Y+4	; 0x04
     dc8:	9d 81       	ldd	r25, Y+5	; 0x05
     dca:	00 97       	sbiw	r24, 0x00	; 0
     dcc:	19 f4       	brne	.+6      	; 0xdd4 <xQueueGenericReceive+0xea>
     dce:	0f 90       	pop	r0
     dd0:	0f be       	out	0x3f, r0	; 63
     dd2:	42 c0       	rjmp	.+132    	; 0xe58 <xQueueGenericReceive+0x16e>
     dd4:	22 23       	and	r18, r18
     dd6:	19 f4       	brne	.+6      	; 0xdde <xQueueGenericReceive+0xf4>
     dd8:	c7 01       	movw	r24, r14
     dda:	0e 94 e0 0b 	call	0x17c0	; 0x17c0 <vTaskSetTimeOutState>
     dde:	0f 90       	pop	r0
     de0:	0f be       	out	0x3f, r0	; 63
     de2:	0e 94 60 09 	call	0x12c0	; 0x12c0 <vTaskSuspendAll>
     de6:	0f b6       	in	r0, 0x3f	; 63
     de8:	f8 94       	cli
     dea:	0f 92       	push	r0
     dec:	f8 01       	movw	r30, r16
     dee:	85 8d       	ldd	r24, Z+29	; 0x1d
     df0:	8f 3f       	cpi	r24, 0xFF	; 255
     df2:	09 f4       	brne	.+2      	; 0xdf6 <xQueueGenericReceive+0x10c>
     df4:	15 8e       	std	Z+29, r1	; 0x1d
     df6:	f8 01       	movw	r30, r16
     df8:	86 8d       	ldd	r24, Z+30	; 0x1e
     dfa:	8f 3f       	cpi	r24, 0xFF	; 255
     dfc:	09 f4       	brne	.+2      	; 0xe00 <xQueueGenericReceive+0x116>
     dfe:	16 8e       	std	Z+30, r1	; 0x1e
     e00:	0f 90       	pop	r0
     e02:	0f be       	out	0x3f, r0	; 63
     e04:	c7 01       	movw	r24, r14
     e06:	b6 01       	movw	r22, r12
     e08:	0e 94 eb 0b 	call	0x17d6	; 0x17d6 <xTaskCheckForTimeOut>
     e0c:	88 23       	and	r24, r24
     e0e:	f9 f4       	brne	.+62     	; 0xe4e <xQueueGenericReceive+0x164>
     e10:	0f b6       	in	r0, 0x3f	; 63
     e12:	f8 94       	cli
     e14:	0f 92       	push	r0
     e16:	f8 01       	movw	r30, r16
     e18:	82 8d       	ldd	r24, Z+26	; 0x1a
     e1a:	0f 90       	pop	r0
     e1c:	0f be       	out	0x3f, r0	; 63
     e1e:	88 23       	and	r24, r24
     e20:	81 f4       	brne	.+32     	; 0xe42 <xQueueGenericReceive+0x158>
     e22:	6c 81       	ldd	r22, Y+4	; 0x04
     e24:	7d 81       	ldd	r23, Y+5	; 0x05
     e26:	c5 01       	movw	r24, r10
     e28:	0e 94 81 0b 	call	0x1702	; 0x1702 <vTaskPlaceOnEventList>
     e2c:	c8 01       	movw	r24, r16
     e2e:	0e 94 98 04 	call	0x930	; 0x930 <prvUnlockQueue>
     e32:	0e 94 1c 0a 	call	0x1438	; 0x1438 <xTaskResumeAll>
     e36:	88 23       	and	r24, r24
     e38:	09 f0       	breq	.+2      	; 0xe3c <xQueueGenericReceive+0x152>
     e3a:	7f cf       	rjmp	.-258    	; 0xd3a <xQueueGenericReceive+0x50>
     e3c:	0e 94 e1 03 	call	0x7c2	; 0x7c2 <vPortYield>
     e40:	7c cf       	rjmp	.-264    	; 0xd3a <xQueueGenericReceive+0x50>
     e42:	c8 01       	movw	r24, r16
     e44:	0e 94 98 04 	call	0x930	; 0x930 <prvUnlockQueue>
     e48:	0e 94 1c 0a 	call	0x1438	; 0x1438 <xTaskResumeAll>
     e4c:	76 cf       	rjmp	.-276    	; 0xd3a <xQueueGenericReceive+0x50>
     e4e:	c8 01       	movw	r24, r16
     e50:	0e 94 98 04 	call	0x930	; 0x930 <prvUnlockQueue>
     e54:	0e 94 1c 0a 	call	0x1438	; 0x1438 <xTaskResumeAll>
     e58:	80 e0       	ldi	r24, 0x00	; 0
     e5a:	0f 90       	pop	r0
     e5c:	0f 90       	pop	r0
     e5e:	0f 90       	pop	r0
     e60:	0f 90       	pop	r0
     e62:	0f 90       	pop	r0
     e64:	cf 91       	pop	r28
     e66:	df 91       	pop	r29
     e68:	1f 91       	pop	r17
     e6a:	0f 91       	pop	r16
     e6c:	ff 90       	pop	r15
     e6e:	ef 90       	pop	r14
     e70:	df 90       	pop	r13
     e72:	cf 90       	pop	r12
     e74:	bf 90       	pop	r11
     e76:	af 90       	pop	r10
     e78:	9f 90       	pop	r9
     e7a:	8f 90       	pop	r8
     e7c:	7f 90       	pop	r7
     e7e:	08 95       	ret

00000e80 <xQueueReceiveFromISR>:
     e80:	0f 93       	push	r16
     e82:	1f 93       	push	r17
     e84:	cf 93       	push	r28
     e86:	df 93       	push	r29
     e88:	ec 01       	movw	r28, r24
     e8a:	cb 01       	movw	r24, r22
     e8c:	8a 01       	movw	r16, r20
     e8e:	2a 8d       	ldd	r18, Y+26	; 0x1a
     e90:	22 23       	and	r18, r18
     e92:	71 f1       	breq	.+92     	; 0xef0 <xQueueReceiveFromISR+0x70>
     e94:	e8 81       	ld	r30, Y
     e96:	f9 81       	ldd	r31, Y+1	; 0x01
     e98:	30 97       	sbiw	r30, 0x00	; 0
     e9a:	a1 f0       	breq	.+40     	; 0xec4 <xQueueReceiveFromISR+0x44>
     e9c:	4c 8d       	ldd	r20, Y+28	; 0x1c
     e9e:	2e 81       	ldd	r18, Y+6	; 0x06
     ea0:	3f 81       	ldd	r19, Y+7	; 0x07
     ea2:	24 0f       	add	r18, r20
     ea4:	31 1d       	adc	r19, r1
     ea6:	3f 83       	std	Y+7, r19	; 0x07
     ea8:	2e 83       	std	Y+6, r18	; 0x06
     eaa:	aa 81       	ldd	r26, Y+2	; 0x02
     eac:	bb 81       	ldd	r27, Y+3	; 0x03
     eae:	2a 17       	cp	r18, r26
     eb0:	3b 07       	cpc	r19, r27
     eb2:	10 f0       	brcs	.+4      	; 0xeb8 <xQueueReceiveFromISR+0x38>
     eb4:	ff 83       	std	Y+7, r31	; 0x07
     eb6:	ee 83       	std	Y+6, r30	; 0x06
     eb8:	6e 81       	ldd	r22, Y+6	; 0x06
     eba:	2f 81       	ldd	r18, Y+7	; 0x07
     ebc:	72 2f       	mov	r23, r18
     ebe:	50 e0       	ldi	r21, 0x00	; 0
     ec0:	0e 94 4f 0c 	call	0x189e	; 0x189e <memcpy>
     ec4:	8a 8d       	ldd	r24, Y+26	; 0x1a
     ec6:	81 50       	subi	r24, 0x01	; 1
     ec8:	8a 8f       	std	Y+26, r24	; 0x1a
     eca:	8d 8d       	ldd	r24, Y+29	; 0x1d
     ecc:	8f 3f       	cpi	r24, 0xFF	; 255
     ece:	69 f4       	brne	.+26     	; 0xeea <xQueueReceiveFromISR+0x6a>
     ed0:	88 85       	ldd	r24, Y+8	; 0x08
     ed2:	88 23       	and	r24, r24
     ed4:	79 f0       	breq	.+30     	; 0xef4 <xQueueReceiveFromISR+0x74>
     ed6:	ce 01       	movw	r24, r28
     ed8:	08 96       	adiw	r24, 0x08	; 8
     eda:	0e 94 9e 0b 	call	0x173c	; 0x173c <xTaskRemoveFromEventList>
     ede:	88 23       	and	r24, r24
     ee0:	49 f0       	breq	.+18     	; 0xef4 <xQueueReceiveFromISR+0x74>
     ee2:	81 e0       	ldi	r24, 0x01	; 1
     ee4:	f8 01       	movw	r30, r16
     ee6:	80 83       	st	Z, r24
     ee8:	06 c0       	rjmp	.+12     	; 0xef6 <xQueueReceiveFromISR+0x76>
     eea:	8f 5f       	subi	r24, 0xFF	; 255
     eec:	8d 8f       	std	Y+29, r24	; 0x1d
     eee:	02 c0       	rjmp	.+4      	; 0xef4 <xQueueReceiveFromISR+0x74>
     ef0:	80 e0       	ldi	r24, 0x00	; 0
     ef2:	01 c0       	rjmp	.+2      	; 0xef6 <xQueueReceiveFromISR+0x76>
     ef4:	81 e0       	ldi	r24, 0x01	; 1
     ef6:	df 91       	pop	r29
     ef8:	cf 91       	pop	r28
     efa:	1f 91       	pop	r17
     efc:	0f 91       	pop	r16
     efe:	08 95       	ret

00000f00 <uxQueueMessagesWaiting>:
     f00:	0f b6       	in	r0, 0x3f	; 63
     f02:	f8 94       	cli
     f04:	0f 92       	push	r0
     f06:	fc 01       	movw	r30, r24
     f08:	82 8d       	ldd	r24, Z+26	; 0x1a
     f0a:	0f 90       	pop	r0
     f0c:	0f be       	out	0x3f, r0	; 63
     f0e:	08 95       	ret

00000f10 <uxQueueMessagesWaitingFromISR>:
     f10:	fc 01       	movw	r30, r24
     f12:	82 8d       	ldd	r24, Z+26	; 0x1a
     f14:	08 95       	ret

00000f16 <vQueueDelete>:
     f16:	cf 93       	push	r28
     f18:	df 93       	push	r29
     f1a:	ec 01       	movw	r28, r24
     f1c:	88 81       	ld	r24, Y
     f1e:	99 81       	ldd	r25, Y+1	; 0x01
     f20:	0e 94 4a 02 	call	0x494	; 0x494 <vPortFree>
     f24:	ce 01       	movw	r24, r28
     f26:	0e 94 4a 02 	call	0x494	; 0x494 <vPortFree>
     f2a:	df 91       	pop	r29
     f2c:	cf 91       	pop	r28
     f2e:	08 95       	ret

00000f30 <xQueueIsQueueEmptyFromISR>:
     f30:	fc 01       	movw	r30, r24
     f32:	92 8d       	ldd	r25, Z+26	; 0x1a
     f34:	81 e0       	ldi	r24, 0x01	; 1
     f36:	91 11       	cpse	r25, r1
     f38:	80 e0       	ldi	r24, 0x00	; 0
     f3a:	08 95       	ret

00000f3c <xQueueIsQueueFullFromISR>:
     f3c:	fc 01       	movw	r30, r24
     f3e:	22 8d       	ldd	r18, Z+26	; 0x1a
     f40:	81 e0       	ldi	r24, 0x01	; 1
     f42:	93 8d       	ldd	r25, Z+27	; 0x1b
     f44:	29 13       	cpse	r18, r25
     f46:	80 e0       	ldi	r24, 0x00	; 0
     f48:	08 95       	ret

00000f4a <prvAddCurrentTaskToDelayedList>:
     f4a:	cf 93       	push	r28
     f4c:	df 93       	push	r29
     f4e:	ec 01       	movw	r28, r24
     f50:	e0 91 50 03 	lds	r30, 0x0350
     f54:	f0 91 51 03 	lds	r31, 0x0351
     f58:	93 83       	std	Z+3, r25	; 0x03
     f5a:	82 83       	std	Z+2, r24	; 0x02
     f5c:	80 91 54 03 	lds	r24, 0x0354
     f60:	90 91 55 03 	lds	r25, 0x0355
     f64:	c8 17       	cp	r28, r24
     f66:	d9 07       	cpc	r29, r25
     f68:	68 f4       	brcc	.+26     	; 0xf84 <prvAddCurrentTaskToDelayedList+0x3a>
     f6a:	80 91 7c 03 	lds	r24, 0x037C
     f6e:	90 91 7d 03 	lds	r25, 0x037D
     f72:	60 91 50 03 	lds	r22, 0x0350
     f76:	70 91 51 03 	lds	r23, 0x0351
     f7a:	6e 5f       	subi	r22, 0xFE	; 254
     f7c:	7f 4f       	sbci	r23, 0xFF	; 255
     f7e:	0e 94 ad 02 	call	0x55a	; 0x55a <vListInsert>
     f82:	17 c0       	rjmp	.+46     	; 0xfb2 <prvAddCurrentTaskToDelayedList+0x68>
     f84:	80 91 7e 03 	lds	r24, 0x037E
     f88:	90 91 7f 03 	lds	r25, 0x037F
     f8c:	60 91 50 03 	lds	r22, 0x0350
     f90:	70 91 51 03 	lds	r23, 0x0351
     f94:	6e 5f       	subi	r22, 0xFE	; 254
     f96:	7f 4f       	sbci	r23, 0xFF	; 255
     f98:	0e 94 ad 02 	call	0x55a	; 0x55a <vListInsert>
     f9c:	80 91 ba 00 	lds	r24, 0x00BA
     fa0:	90 91 bb 00 	lds	r25, 0x00BB
     fa4:	c8 17       	cp	r28, r24
     fa6:	d9 07       	cpc	r29, r25
     fa8:	20 f4       	brcc	.+8      	; 0xfb2 <prvAddCurrentTaskToDelayedList+0x68>
     faa:	d0 93 bb 00 	sts	0x00BB, r29
     fae:	c0 93 ba 00 	sts	0x00BA, r28
     fb2:	df 91       	pop	r29
     fb4:	cf 91       	pop	r28
     fb6:	08 95       	ret

00000fb8 <xTaskGenericCreate>:
     fb8:	2f 92       	push	r2
     fba:	3f 92       	push	r3
     fbc:	4f 92       	push	r4
     fbe:	5f 92       	push	r5
     fc0:	6f 92       	push	r6
     fc2:	7f 92       	push	r7
     fc4:	8f 92       	push	r8
     fc6:	9f 92       	push	r9
     fc8:	af 92       	push	r10
     fca:	bf 92       	push	r11
     fcc:	cf 92       	push	r12
     fce:	df 92       	push	r13
     fd0:	ef 92       	push	r14
     fd2:	ff 92       	push	r15
     fd4:	0f 93       	push	r16
     fd6:	1f 93       	push	r17
     fd8:	cf 93       	push	r28
     fda:	df 93       	push	r29
     fdc:	1c 01       	movw	r2, r24
     fde:	3b 01       	movw	r6, r22
     fe0:	5a 01       	movw	r10, r20
     fe2:	29 01       	movw	r4, r18
     fe4:	47 01       	movw	r8, r14
     fe6:	81 e2       	ldi	r24, 0x21	; 33
     fe8:	90 e0       	ldi	r25, 0x00	; 0
     fea:	0e 94 21 02 	call	0x442	; 0x442 <pvPortMalloc>
     fee:	e8 2e       	mov	r14, r24
     ff0:	e7 01       	movw	r28, r14
     ff2:	7e 01       	movw	r14, r28
     ff4:	f9 2e       	mov	r15, r25
     ff6:	e7 01       	movw	r28, r14
     ff8:	20 97       	sbiw	r28, 0x00	; 0
     ffa:	09 f4       	brne	.+2      	; 0xffe <xTaskGenericCreate+0x46>
     ffc:	ce c0       	rjmp	.+412    	; 0x119a <xTaskGenericCreate+0x1e2>
     ffe:	c1 14       	cp	r12, r1
    1000:	d1 04       	cpc	r13, r1
    1002:	29 f4       	brne	.+10     	; 0x100e <xTaskGenericCreate+0x56>
    1004:	c5 01       	movw	r24, r10
    1006:	0e 94 21 02 	call	0x442	; 0x442 <pvPortMalloc>
    100a:	c8 2e       	mov	r12, r24
    100c:	d9 2e       	mov	r13, r25
    100e:	d8 8e       	std	Y+24, r13	; 0x18
    1010:	cf 8a       	std	Y+23, r12	; 0x17
    1012:	c1 14       	cp	r12, r1
    1014:	d1 04       	cpc	r13, r1
    1016:	21 f4       	brne	.+8      	; 0x1020 <xTaskGenericCreate+0x68>
    1018:	ce 01       	movw	r24, r28
    101a:	0e 94 4a 02 	call	0x494	; 0x494 <vPortFree>
    101e:	bd c0       	rjmp	.+378    	; 0x119a <xTaskGenericCreate+0x1e2>
    1020:	c6 01       	movw	r24, r12
    1022:	65 ea       	ldi	r22, 0xA5	; 165
    1024:	70 e0       	ldi	r23, 0x00	; 0
    1026:	a5 01       	movw	r20, r10
    1028:	0e 94 58 0c 	call	0x18b0	; 0x18b0 <memset>
    102c:	08 94       	sec
    102e:	a1 08       	sbc	r10, r1
    1030:	b1 08       	sbc	r11, r1
    1032:	ef 88       	ldd	r14, Y+23	; 0x17
    1034:	f8 8c       	ldd	r15, Y+24	; 0x18
    1036:	ea 0c       	add	r14, r10
    1038:	fb 1c       	adc	r15, r11
    103a:	ce 01       	movw	r24, r28
    103c:	49 96       	adiw	r24, 0x19	; 25
    103e:	b3 01       	movw	r22, r6
    1040:	48 e0       	ldi	r20, 0x08	; 8
    1042:	50 e0       	ldi	r21, 0x00	; 0
    1044:	0e 94 5f 0c 	call	0x18be	; 0x18be <strncpy>
    1048:	18 a2       	std	Y+32, r1	; 0x20
    104a:	10 2f       	mov	r17, r16
    104c:	03 30       	cpi	r16, 0x03	; 3
    104e:	08 f0       	brcs	.+2      	; 0x1052 <xTaskGenericCreate+0x9a>
    1050:	12 e0       	ldi	r17, 0x02	; 2
    1052:	1e 8b       	std	Y+22, r17	; 0x16
    1054:	72 e0       	ldi	r23, 0x02	; 2
    1056:	a7 2e       	mov	r10, r23
    1058:	b1 2c       	mov	r11, r1
    105a:	ac 0e       	add	r10, r28
    105c:	bd 1e       	adc	r11, r29
    105e:	c5 01       	movw	r24, r10
    1060:	0e 94 84 02 	call	0x508	; 0x508 <vListInitialiseItem>
    1064:	ce 01       	movw	r24, r28
    1066:	0c 96       	adiw	r24, 0x0c	; 12
    1068:	0e 94 84 02 	call	0x508	; 0x508 <vListInitialiseItem>
    106c:	d9 87       	std	Y+9, r29	; 0x09
    106e:	c8 87       	std	Y+8, r28	; 0x08
    1070:	83 e0       	ldi	r24, 0x03	; 3
    1072:	90 e0       	ldi	r25, 0x00	; 0
    1074:	81 1b       	sub	r24, r17
    1076:	91 09       	sbc	r25, r1
    1078:	9d 87       	std	Y+13, r25	; 0x0d
    107a:	8c 87       	std	Y+12, r24	; 0x0c
    107c:	db 8b       	std	Y+19, r29	; 0x13
    107e:	ca 8b       	std	Y+18, r28	; 0x12
    1080:	c7 01       	movw	r24, r14
    1082:	b1 01       	movw	r22, r2
    1084:	a2 01       	movw	r20, r4
    1086:	0e 94 61 03 	call	0x6c2	; 0x6c2 <pxPortInitialiseStack>
    108a:	99 83       	std	Y+1, r25	; 0x01
    108c:	88 83       	st	Y, r24
    108e:	81 14       	cp	r8, r1
    1090:	91 04       	cpc	r9, r1
    1092:	19 f0       	breq	.+6      	; 0x109a <xTaskGenericCreate+0xe2>
    1094:	f4 01       	movw	r30, r8
    1096:	d1 83       	std	Z+1, r29	; 0x01
    1098:	c0 83       	st	Z, r28
    109a:	0f b6       	in	r0, 0x3f	; 63
    109c:	f8 94       	cli
    109e:	0f 92       	push	r0
    10a0:	80 91 81 03 	lds	r24, 0x0381
    10a4:	8f 5f       	subi	r24, 0xFF	; 255
    10a6:	80 93 81 03 	sts	0x0381, r24
    10aa:	80 91 50 03 	lds	r24, 0x0350
    10ae:	90 91 51 03 	lds	r25, 0x0351
    10b2:	00 97       	sbiw	r24, 0x00	; 0
    10b4:	99 f5       	brne	.+102    	; 0x111c <xTaskGenericCreate+0x164>
    10b6:	d0 93 51 03 	sts	0x0351, r29
    10ba:	c0 93 50 03 	sts	0x0350, r28
    10be:	80 91 81 03 	lds	r24, 0x0381
    10c2:	81 30       	cpi	r24, 0x01	; 1
    10c4:	d1 f5       	brne	.+116    	; 0x113a <xTaskGenericCreate+0x182>
    10c6:	88 e5       	ldi	r24, 0x58	; 88
    10c8:	93 e0       	ldi	r25, 0x03	; 3
    10ca:	0e 94 76 02 	call	0x4ec	; 0x4ec <vListInitialise>
    10ce:	81 e6       	ldi	r24, 0x61	; 97
    10d0:	93 e0       	ldi	r25, 0x03	; 3
    10d2:	0e 94 76 02 	call	0x4ec	; 0x4ec <vListInitialise>
    10d6:	8a e6       	ldi	r24, 0x6A	; 106
    10d8:	93 e0       	ldi	r25, 0x03	; 3
    10da:	0e 94 76 02 	call	0x4ec	; 0x4ec <vListInitialise>
    10de:	6f e8       	ldi	r22, 0x8F	; 143
    10e0:	e6 2e       	mov	r14, r22
    10e2:	63 e0       	ldi	r22, 0x03	; 3
    10e4:	f6 2e       	mov	r15, r22
    10e6:	c7 01       	movw	r24, r14
    10e8:	0e 94 76 02 	call	0x4ec	; 0x4ec <vListInitialise>
    10ec:	58 e9       	ldi	r21, 0x98	; 152
    10ee:	c5 2e       	mov	r12, r21
    10f0:	53 e0       	ldi	r21, 0x03	; 3
    10f2:	d5 2e       	mov	r13, r21
    10f4:	c6 01       	movw	r24, r12
    10f6:	0e 94 76 02 	call	0x4ec	; 0x4ec <vListInitialise>
    10fa:	83 e7       	ldi	r24, 0x73	; 115
    10fc:	93 e0       	ldi	r25, 0x03	; 3
    10fe:	0e 94 76 02 	call	0x4ec	; 0x4ec <vListInitialise>
    1102:	84 e8       	ldi	r24, 0x84	; 132
    1104:	93 e0       	ldi	r25, 0x03	; 3
    1106:	0e 94 76 02 	call	0x4ec	; 0x4ec <vListInitialise>
    110a:	f0 92 7f 03 	sts	0x037F, r15
    110e:	e0 92 7e 03 	sts	0x037E, r14
    1112:	d0 92 7d 03 	sts	0x037D, r13
    1116:	c0 92 7c 03 	sts	0x037C, r12
    111a:	0f c0       	rjmp	.+30     	; 0x113a <xTaskGenericCreate+0x182>
    111c:	80 91 82 03 	lds	r24, 0x0382
    1120:	88 23       	and	r24, r24
    1122:	59 f4       	brne	.+22     	; 0x113a <xTaskGenericCreate+0x182>
    1124:	e0 91 50 03 	lds	r30, 0x0350
    1128:	f0 91 51 03 	lds	r31, 0x0351
    112c:	86 89       	ldd	r24, Z+22	; 0x16
    112e:	08 17       	cp	r16, r24
    1130:	20 f0       	brcs	.+8      	; 0x113a <xTaskGenericCreate+0x182>
    1132:	d0 93 51 03 	sts	0x0351, r29
    1136:	c0 93 50 03 	sts	0x0350, r28
    113a:	2e 89       	ldd	r18, Y+22	; 0x16
    113c:	80 91 8e 03 	lds	r24, 0x038E
    1140:	82 17       	cp	r24, r18
    1142:	10 f4       	brcc	.+4      	; 0x1148 <xTaskGenericCreate+0x190>
    1144:	20 93 8e 03 	sts	0x038E, r18
    1148:	80 91 8d 03 	lds	r24, 0x038D
    114c:	8f 5f       	subi	r24, 0xFF	; 255
    114e:	80 93 8d 03 	sts	0x038D, r24
    1152:	80 91 57 03 	lds	r24, 0x0357
    1156:	82 17       	cp	r24, r18
    1158:	10 f4       	brcc	.+4      	; 0x115e <xTaskGenericCreate+0x1a6>
    115a:	20 93 57 03 	sts	0x0357, r18
    115e:	30 e0       	ldi	r19, 0x00	; 0
    1160:	c9 01       	movw	r24, r18
    1162:	43 e0       	ldi	r20, 0x03	; 3
    1164:	88 0f       	add	r24, r24
    1166:	99 1f       	adc	r25, r25
    1168:	4a 95       	dec	r20
    116a:	e1 f7       	brne	.-8      	; 0x1164 <xTaskGenericCreate+0x1ac>
    116c:	82 0f       	add	r24, r18
    116e:	93 1f       	adc	r25, r19
    1170:	88 5a       	subi	r24, 0xA8	; 168
    1172:	9c 4f       	sbci	r25, 0xFC	; 252
    1174:	b5 01       	movw	r22, r10
    1176:	0e 94 88 02 	call	0x510	; 0x510 <vListInsertEnd>
    117a:	0f 90       	pop	r0
    117c:	0f be       	out	0x3f, r0	; 63
    117e:	80 91 82 03 	lds	r24, 0x0382
    1182:	88 23       	and	r24, r24
    1184:	61 f0       	breq	.+24     	; 0x119e <xTaskGenericCreate+0x1e6>
    1186:	e0 91 50 03 	lds	r30, 0x0350
    118a:	f0 91 51 03 	lds	r31, 0x0351
    118e:	86 89       	ldd	r24, Z+22	; 0x16
    1190:	80 17       	cp	r24, r16
    1192:	28 f4       	brcc	.+10     	; 0x119e <xTaskGenericCreate+0x1e6>
    1194:	0e 94 e1 03 	call	0x7c2	; 0x7c2 <vPortYield>
    1198:	02 c0       	rjmp	.+4      	; 0x119e <xTaskGenericCreate+0x1e6>
    119a:	8f ef       	ldi	r24, 0xFF	; 255
    119c:	01 c0       	rjmp	.+2      	; 0x11a0 <xTaskGenericCreate+0x1e8>
    119e:	81 e0       	ldi	r24, 0x01	; 1
    11a0:	df 91       	pop	r29
    11a2:	cf 91       	pop	r28
    11a4:	1f 91       	pop	r17
    11a6:	0f 91       	pop	r16
    11a8:	ff 90       	pop	r15
    11aa:	ef 90       	pop	r14
    11ac:	df 90       	pop	r13
    11ae:	cf 90       	pop	r12
    11b0:	bf 90       	pop	r11
    11b2:	af 90       	pop	r10
    11b4:	9f 90       	pop	r9
    11b6:	8f 90       	pop	r8
    11b8:	7f 90       	pop	r7
    11ba:	6f 90       	pop	r6
    11bc:	5f 90       	pop	r5
    11be:	4f 90       	pop	r4
    11c0:	3f 90       	pop	r3
    11c2:	2f 90       	pop	r2
    11c4:	08 95       	ret

000011c6 <vTaskDelete>:
    11c6:	ef 92       	push	r14
    11c8:	ff 92       	push	r15
    11ca:	0f 93       	push	r16
    11cc:	1f 93       	push	r17
    11ce:	cf 93       	push	r28
    11d0:	df 93       	push	r29
    11d2:	ec 01       	movw	r28, r24
    11d4:	0f b6       	in	r0, 0x3f	; 63
    11d6:	f8 94       	cli
    11d8:	0f 92       	push	r0
    11da:	80 91 50 03 	lds	r24, 0x0350
    11de:	90 91 51 03 	lds	r25, 0x0351
    11e2:	c8 17       	cp	r28, r24
    11e4:	d9 07       	cpc	r29, r25
    11e6:	11 f0       	breq	.+4      	; 0x11ec <vTaskDelete+0x26>
    11e8:	20 97       	sbiw	r28, 0x00	; 0
    11ea:	39 f4       	brne	.+14     	; 0x11fa <vTaskDelete+0x34>
    11ec:	00 91 50 03 	lds	r16, 0x0350
    11f0:	10 91 51 03 	lds	r17, 0x0351
    11f4:	c0 e0       	ldi	r28, 0x00	; 0
    11f6:	d0 e0       	ldi	r29, 0x00	; 0
    11f8:	01 c0       	rjmp	.+2      	; 0x11fc <vTaskDelete+0x36>
    11fa:	8e 01       	movw	r16, r28
    11fc:	e2 e0       	ldi	r30, 0x02	; 2
    11fe:	ee 2e       	mov	r14, r30
    1200:	f1 2c       	mov	r15, r1
    1202:	e0 0e       	add	r14, r16
    1204:	f1 1e       	adc	r15, r17
    1206:	c7 01       	movw	r24, r14
    1208:	0e 94 e4 02 	call	0x5c8	; 0x5c8 <vListRemove>
    120c:	f8 01       	movw	r30, r16
    120e:	84 89       	ldd	r24, Z+20	; 0x14
    1210:	95 89       	ldd	r25, Z+21	; 0x15
    1212:	00 97       	sbiw	r24, 0x00	; 0
    1214:	21 f0       	breq	.+8      	; 0x121e <vTaskDelete+0x58>
    1216:	c8 01       	movw	r24, r16
    1218:	0c 96       	adiw	r24, 0x0c	; 12
    121a:	0e 94 e4 02 	call	0x5c8	; 0x5c8 <vListRemove>
    121e:	84 e8       	ldi	r24, 0x84	; 132
    1220:	93 e0       	ldi	r25, 0x03	; 3
    1222:	b7 01       	movw	r22, r14
    1224:	0e 94 88 02 	call	0x510	; 0x510 <vListInsertEnd>
    1228:	80 91 83 03 	lds	r24, 0x0383
    122c:	8f 5f       	subi	r24, 0xFF	; 255
    122e:	80 93 83 03 	sts	0x0383, r24
    1232:	80 91 8d 03 	lds	r24, 0x038D
    1236:	8f 5f       	subi	r24, 0xFF	; 255
    1238:	80 93 8d 03 	sts	0x038D, r24
    123c:	0f 90       	pop	r0
    123e:	0f be       	out	0x3f, r0	; 63
    1240:	80 91 82 03 	lds	r24, 0x0382
    1244:	88 23       	and	r24, r24
    1246:	21 f0       	breq	.+8      	; 0x1250 <vTaskDelete+0x8a>
    1248:	20 97       	sbiw	r28, 0x00	; 0
    124a:	11 f4       	brne	.+4      	; 0x1250 <vTaskDelete+0x8a>
    124c:	0e 94 e1 03 	call	0x7c2	; 0x7c2 <vPortYield>
    1250:	df 91       	pop	r29
    1252:	cf 91       	pop	r28
    1254:	1f 91       	pop	r17
    1256:	0f 91       	pop	r16
    1258:	ff 90       	pop	r15
    125a:	ef 90       	pop	r14
    125c:	08 95       	ret

0000125e <vTaskStartScheduler>:
    125e:	af 92       	push	r10
    1260:	bf 92       	push	r11
    1262:	cf 92       	push	r12
    1264:	df 92       	push	r13
    1266:	ef 92       	push	r14
    1268:	ff 92       	push	r15
    126a:	0f 93       	push	r16
    126c:	8b e9       	ldi	r24, 0x9B	; 155
    126e:	9a e0       	ldi	r25, 0x0A	; 10
    1270:	65 eb       	ldi	r22, 0xB5	; 181
    1272:	70 e0       	ldi	r23, 0x00	; 0
    1274:	45 e5       	ldi	r20, 0x55	; 85
    1276:	50 e0       	ldi	r21, 0x00	; 0
    1278:	20 e0       	ldi	r18, 0x00	; 0
    127a:	30 e0       	ldi	r19, 0x00	; 0
    127c:	00 e0       	ldi	r16, 0x00	; 0
    127e:	ee 24       	eor	r14, r14
    1280:	ff 24       	eor	r15, r15
    1282:	cc 24       	eor	r12, r12
    1284:	dd 24       	eor	r13, r13
    1286:	aa 24       	eor	r10, r10
    1288:	bb 24       	eor	r11, r11
    128a:	0e 94 dc 07 	call	0xfb8	; 0xfb8 <xTaskGenericCreate>
    128e:	81 30       	cpi	r24, 0x01	; 1
    1290:	49 f4       	brne	.+18     	; 0x12a4 <vTaskStartScheduler+0x46>
    1292:	f8 94       	cli
    1294:	80 93 82 03 	sts	0x0382, r24
    1298:	10 92 55 03 	sts	0x0355, r1
    129c:	10 92 54 03 	sts	0x0354, r1
    12a0:	0e 94 ab 03 	call	0x756	; 0x756 <xPortStartScheduler>
    12a4:	0f 91       	pop	r16
    12a6:	ff 90       	pop	r15
    12a8:	ef 90       	pop	r14
    12aa:	df 90       	pop	r13
    12ac:	cf 90       	pop	r12
    12ae:	bf 90       	pop	r11
    12b0:	af 90       	pop	r10
    12b2:	08 95       	ret

000012b4 <vTaskEndScheduler>:
    12b4:	f8 94       	cli
    12b6:	10 92 82 03 	sts	0x0382, r1
    12ba:	0e 94 e0 03 	call	0x7c0	; 0x7c0 <vPortEndScheduler>
    12be:	08 95       	ret

000012c0 <vTaskSuspendAll>:
    12c0:	80 91 56 03 	lds	r24, 0x0356
    12c4:	8f 5f       	subi	r24, 0xFF	; 255
    12c6:	80 93 56 03 	sts	0x0356, r24
    12ca:	08 95       	ret

000012cc <xTaskGetTickCount>:
    12cc:	0f b6       	in	r0, 0x3f	; 63
    12ce:	f8 94       	cli
    12d0:	0f 92       	push	r0
    12d2:	20 91 54 03 	lds	r18, 0x0354
    12d6:	30 91 55 03 	lds	r19, 0x0355
    12da:	0f 90       	pop	r0
    12dc:	0f be       	out	0x3f, r0	; 63
    12de:	c9 01       	movw	r24, r18
    12e0:	08 95       	ret

000012e2 <xTaskGetTickCountFromISR>:
    12e2:	20 91 54 03 	lds	r18, 0x0354
    12e6:	30 91 55 03 	lds	r19, 0x0355
    12ea:	c9 01       	movw	r24, r18
    12ec:	08 95       	ret

000012ee <uxTaskGetNumberOfTasks>:
    12ee:	80 91 81 03 	lds	r24, 0x0381
    12f2:	08 95       	ret

000012f4 <vTaskIncrementTick>:
    12f4:	0f 93       	push	r16
    12f6:	1f 93       	push	r17
    12f8:	cf 93       	push	r28
    12fa:	df 93       	push	r29
    12fc:	80 91 56 03 	lds	r24, 0x0356
    1300:	88 23       	and	r24, r24
    1302:	09 f0       	breq	.+2      	; 0x1306 <vTaskIncrementTick+0x12>
    1304:	8f c0       	rjmp	.+286    	; 0x1424 <vTaskIncrementTick+0x130>
    1306:	80 91 54 03 	lds	r24, 0x0354
    130a:	90 91 55 03 	lds	r25, 0x0355
    130e:	01 96       	adiw	r24, 0x01	; 1
    1310:	90 93 55 03 	sts	0x0355, r25
    1314:	80 93 54 03 	sts	0x0354, r24
    1318:	80 91 54 03 	lds	r24, 0x0354
    131c:	90 91 55 03 	lds	r25, 0x0355
    1320:	00 97       	sbiw	r24, 0x00	; 0
    1322:	79 f5       	brne	.+94     	; 0x1382 <vTaskIncrementTick+0x8e>
    1324:	80 91 7e 03 	lds	r24, 0x037E
    1328:	90 91 7f 03 	lds	r25, 0x037F
    132c:	20 91 7c 03 	lds	r18, 0x037C
    1330:	30 91 7d 03 	lds	r19, 0x037D
    1334:	30 93 7f 03 	sts	0x037F, r19
    1338:	20 93 7e 03 	sts	0x037E, r18
    133c:	90 93 7d 03 	sts	0x037D, r25
    1340:	80 93 7c 03 	sts	0x037C, r24
    1344:	80 91 53 03 	lds	r24, 0x0353
    1348:	8f 5f       	subi	r24, 0xFF	; 255
    134a:	80 93 53 03 	sts	0x0353, r24
    134e:	e0 91 7e 03 	lds	r30, 0x037E
    1352:	f0 91 7f 03 	lds	r31, 0x037F
    1356:	80 81       	ld	r24, Z
    1358:	88 23       	and	r24, r24
    135a:	19 f4       	brne	.+6      	; 0x1362 <vTaskIncrementTick+0x6e>
    135c:	8f ef       	ldi	r24, 0xFF	; 255
    135e:	9f ef       	ldi	r25, 0xFF	; 255
    1360:	0c c0       	rjmp	.+24     	; 0x137a <vTaskIncrementTick+0x86>
    1362:	e0 91 7e 03 	lds	r30, 0x037E
    1366:	f0 91 7f 03 	lds	r31, 0x037F
    136a:	05 80       	ldd	r0, Z+5	; 0x05
    136c:	f6 81       	ldd	r31, Z+6	; 0x06
    136e:	e0 2d       	mov	r30, r0
    1370:	06 80       	ldd	r0, Z+6	; 0x06
    1372:	f7 81       	ldd	r31, Z+7	; 0x07
    1374:	e0 2d       	mov	r30, r0
    1376:	82 81       	ldd	r24, Z+2	; 0x02
    1378:	93 81       	ldd	r25, Z+3	; 0x03
    137a:	90 93 bb 00 	sts	0x00BB, r25
    137e:	80 93 ba 00 	sts	0x00BA, r24
    1382:	20 91 54 03 	lds	r18, 0x0354
    1386:	30 91 55 03 	lds	r19, 0x0355
    138a:	80 91 ba 00 	lds	r24, 0x00BA
    138e:	90 91 bb 00 	lds	r25, 0x00BB
    1392:	28 17       	cp	r18, r24
    1394:	39 07       	cpc	r19, r25
    1396:	08 f4       	brcc	.+2      	; 0x139a <vTaskIncrementTick+0xa6>
    1398:	4a c0       	rjmp	.+148    	; 0x142e <vTaskIncrementTick+0x13a>
    139a:	e0 91 7e 03 	lds	r30, 0x037E
    139e:	f0 91 7f 03 	lds	r31, 0x037F
    13a2:	80 81       	ld	r24, Z
    13a4:	88 23       	and	r24, r24
    13a6:	19 f4       	brne	.+6      	; 0x13ae <vTaskIncrementTick+0xba>
    13a8:	8f ef       	ldi	r24, 0xFF	; 255
    13aa:	9f ef       	ldi	r25, 0xFF	; 255
    13ac:	12 c0       	rjmp	.+36     	; 0x13d2 <vTaskIncrementTick+0xde>
    13ae:	e0 91 7e 03 	lds	r30, 0x037E
    13b2:	f0 91 7f 03 	lds	r31, 0x037F
    13b6:	05 80       	ldd	r0, Z+5	; 0x05
    13b8:	f6 81       	ldd	r31, Z+6	; 0x06
    13ba:	e0 2d       	mov	r30, r0
    13bc:	c6 81       	ldd	r28, Z+6	; 0x06
    13be:	d7 81       	ldd	r29, Z+7	; 0x07
    13c0:	8a 81       	ldd	r24, Y+2	; 0x02
    13c2:	9b 81       	ldd	r25, Y+3	; 0x03
    13c4:	20 91 54 03 	lds	r18, 0x0354
    13c8:	30 91 55 03 	lds	r19, 0x0355
    13cc:	28 17       	cp	r18, r24
    13ce:	39 07       	cpc	r19, r25
    13d0:	28 f4       	brcc	.+10     	; 0x13dc <vTaskIncrementTick+0xe8>
    13d2:	90 93 bb 00 	sts	0x00BB, r25
    13d6:	80 93 ba 00 	sts	0x00BA, r24
    13da:	29 c0       	rjmp	.+82     	; 0x142e <vTaskIncrementTick+0x13a>
    13dc:	8e 01       	movw	r16, r28
    13de:	0e 5f       	subi	r16, 0xFE	; 254
    13e0:	1f 4f       	sbci	r17, 0xFF	; 255
    13e2:	c8 01       	movw	r24, r16
    13e4:	0e 94 e4 02 	call	0x5c8	; 0x5c8 <vListRemove>
    13e8:	8c 89       	ldd	r24, Y+20	; 0x14
    13ea:	9d 89       	ldd	r25, Y+21	; 0x15
    13ec:	00 97       	sbiw	r24, 0x00	; 0
    13ee:	21 f0       	breq	.+8      	; 0x13f8 <vTaskIncrementTick+0x104>
    13f0:	ce 01       	movw	r24, r28
    13f2:	0c 96       	adiw	r24, 0x0c	; 12
    13f4:	0e 94 e4 02 	call	0x5c8	; 0x5c8 <vListRemove>
    13f8:	2e 89       	ldd	r18, Y+22	; 0x16
    13fa:	80 91 57 03 	lds	r24, 0x0357
    13fe:	82 17       	cp	r24, r18
    1400:	10 f4       	brcc	.+4      	; 0x1406 <vTaskIncrementTick+0x112>
    1402:	20 93 57 03 	sts	0x0357, r18
    1406:	30 e0       	ldi	r19, 0x00	; 0
    1408:	c9 01       	movw	r24, r18
    140a:	f3 e0       	ldi	r31, 0x03	; 3
    140c:	88 0f       	add	r24, r24
    140e:	99 1f       	adc	r25, r25
    1410:	fa 95       	dec	r31
    1412:	e1 f7       	brne	.-8      	; 0x140c <vTaskIncrementTick+0x118>
    1414:	82 0f       	add	r24, r18
    1416:	93 1f       	adc	r25, r19
    1418:	88 5a       	subi	r24, 0xA8	; 168
    141a:	9c 4f       	sbci	r25, 0xFC	; 252
    141c:	b8 01       	movw	r22, r16
    141e:	0e 94 88 02 	call	0x510	; 0x510 <vListInsertEnd>
    1422:	bb cf       	rjmp	.-138    	; 0x139a <vTaskIncrementTick+0xa6>
    1424:	80 91 80 03 	lds	r24, 0x0380
    1428:	8f 5f       	subi	r24, 0xFF	; 255
    142a:	80 93 80 03 	sts	0x0380, r24
    142e:	df 91       	pop	r29
    1430:	cf 91       	pop	r28
    1432:	1f 91       	pop	r17
    1434:	0f 91       	pop	r16
    1436:	08 95       	ret

00001438 <xTaskResumeAll>:
    1438:	ef 92       	push	r14
    143a:	ff 92       	push	r15
    143c:	0f 93       	push	r16
    143e:	1f 93       	push	r17
    1440:	df 93       	push	r29
    1442:	cf 93       	push	r28
    1444:	0f 92       	push	r0
    1446:	cd b7       	in	r28, 0x3d	; 61
    1448:	de b7       	in	r29, 0x3e	; 62
    144a:	0f b6       	in	r0, 0x3f	; 63
    144c:	f8 94       	cli
    144e:	0f 92       	push	r0
    1450:	80 91 56 03 	lds	r24, 0x0356
    1454:	81 50       	subi	r24, 0x01	; 1
    1456:	80 93 56 03 	sts	0x0356, r24
    145a:	80 91 56 03 	lds	r24, 0x0356
    145e:	88 23       	and	r24, r24
    1460:	09 f0       	breq	.+2      	; 0x1464 <xTaskResumeAll+0x2c>
    1462:	5e c0       	rjmp	.+188    	; 0x1520 <xTaskResumeAll+0xe8>
    1464:	80 91 81 03 	lds	r24, 0x0381
    1468:	88 23       	and	r24, r24
    146a:	09 f4       	brne	.+2      	; 0x146e <xTaskResumeAll+0x36>
    146c:	59 c0       	rjmp	.+178    	; 0x1520 <xTaskResumeAll+0xe8>
    146e:	19 82       	std	Y+1, r1	; 0x01
    1470:	35 c0       	rjmp	.+106    	; 0x14dc <xTaskResumeAll+0xa4>
    1472:	e0 91 78 03 	lds	r30, 0x0378
    1476:	f0 91 79 03 	lds	r31, 0x0379
    147a:	e6 80       	ldd	r14, Z+6	; 0x06
    147c:	f7 80       	ldd	r15, Z+7	; 0x07
    147e:	c7 01       	movw	r24, r14
    1480:	0c 96       	adiw	r24, 0x0c	; 12
    1482:	0e 94 e4 02 	call	0x5c8	; 0x5c8 <vListRemove>
    1486:	87 01       	movw	r16, r14
    1488:	0e 5f       	subi	r16, 0xFE	; 254
    148a:	1f 4f       	sbci	r17, 0xFF	; 255
    148c:	c8 01       	movw	r24, r16
    148e:	0e 94 e4 02 	call	0x5c8	; 0x5c8 <vListRemove>
    1492:	d7 01       	movw	r26, r14
    1494:	56 96       	adiw	r26, 0x16	; 22
    1496:	2c 91       	ld	r18, X
    1498:	56 97       	sbiw	r26, 0x16	; 22
    149a:	80 91 57 03 	lds	r24, 0x0357
    149e:	82 17       	cp	r24, r18
    14a0:	10 f4       	brcc	.+4      	; 0x14a6 <xTaskResumeAll+0x6e>
    14a2:	20 93 57 03 	sts	0x0357, r18
    14a6:	30 e0       	ldi	r19, 0x00	; 0
    14a8:	c9 01       	movw	r24, r18
    14aa:	a3 e0       	ldi	r26, 0x03	; 3
    14ac:	88 0f       	add	r24, r24
    14ae:	99 1f       	adc	r25, r25
    14b0:	aa 95       	dec	r26
    14b2:	e1 f7       	brne	.-8      	; 0x14ac <xTaskResumeAll+0x74>
    14b4:	82 0f       	add	r24, r18
    14b6:	93 1f       	adc	r25, r19
    14b8:	88 5a       	subi	r24, 0xA8	; 168
    14ba:	9c 4f       	sbci	r25, 0xFC	; 252
    14bc:	b8 01       	movw	r22, r16
    14be:	0e 94 88 02 	call	0x510	; 0x510 <vListInsertEnd>
    14c2:	e0 91 50 03 	lds	r30, 0x0350
    14c6:	f0 91 51 03 	lds	r31, 0x0351
    14ca:	d7 01       	movw	r26, r14
    14cc:	56 96       	adiw	r26, 0x16	; 22
    14ce:	9c 91       	ld	r25, X
    14d0:	56 97       	sbiw	r26, 0x16	; 22
    14d2:	86 89       	ldd	r24, Z+22	; 0x16
    14d4:	98 17       	cp	r25, r24
    14d6:	10 f0       	brcs	.+4      	; 0x14dc <xTaskResumeAll+0xa4>
    14d8:	b1 e0       	ldi	r27, 0x01	; 1
    14da:	b9 83       	std	Y+1, r27	; 0x01
    14dc:	80 91 73 03 	lds	r24, 0x0373
    14e0:	88 23       	and	r24, r24
    14e2:	39 f6       	brne	.-114    	; 0x1472 <xTaskResumeAll+0x3a>
    14e4:	80 91 80 03 	lds	r24, 0x0380
    14e8:	88 23       	and	r24, r24
    14ea:	41 f4       	brne	.+16     	; 0x14fc <xTaskResumeAll+0xc4>
    14ec:	0c c0       	rjmp	.+24     	; 0x1506 <xTaskResumeAll+0xce>
    14ee:	0e 94 7a 09 	call	0x12f4	; 0x12f4 <vTaskIncrementTick>
    14f2:	80 91 80 03 	lds	r24, 0x0380
    14f6:	81 50       	subi	r24, 0x01	; 1
    14f8:	80 93 80 03 	sts	0x0380, r24
    14fc:	80 91 80 03 	lds	r24, 0x0380
    1500:	88 23       	and	r24, r24
    1502:	a9 f7       	brne	.-22     	; 0x14ee <xTaskResumeAll+0xb6>
    1504:	07 c0       	rjmp	.+14     	; 0x1514 <xTaskResumeAll+0xdc>
    1506:	e9 81       	ldd	r30, Y+1	; 0x01
    1508:	e1 30       	cpi	r30, 0x01	; 1
    150a:	21 f0       	breq	.+8      	; 0x1514 <xTaskResumeAll+0xdc>
    150c:	80 91 52 03 	lds	r24, 0x0352
    1510:	81 30       	cpi	r24, 0x01	; 1
    1512:	31 f4       	brne	.+12     	; 0x1520 <xTaskResumeAll+0xe8>
    1514:	10 92 52 03 	sts	0x0352, r1
    1518:	0e 94 e1 03 	call	0x7c2	; 0x7c2 <vPortYield>
    151c:	81 e0       	ldi	r24, 0x01	; 1
    151e:	01 c0       	rjmp	.+2      	; 0x1522 <xTaskResumeAll+0xea>
    1520:	80 e0       	ldi	r24, 0x00	; 0
    1522:	0f 90       	pop	r0
    1524:	0f be       	out	0x3f, r0	; 63
    1526:	0f 90       	pop	r0
    1528:	cf 91       	pop	r28
    152a:	df 91       	pop	r29
    152c:	1f 91       	pop	r17
    152e:	0f 91       	pop	r16
    1530:	ff 90       	pop	r15
    1532:	ef 90       	pop	r14
    1534:	08 95       	ret

00001536 <prvIdleTask>:
    1536:	1f 93       	push	r17
    1538:	cf 93       	push	r28
    153a:	df 93       	push	r29
    153c:	80 91 83 03 	lds	r24, 0x0383
    1540:	88 23       	and	r24, r24
    1542:	e1 f3       	breq	.-8      	; 0x153c <prvIdleTask+0x6>
    1544:	0e 94 60 09 	call	0x12c0	; 0x12c0 <vTaskSuspendAll>
    1548:	10 91 84 03 	lds	r17, 0x0384
    154c:	0e 94 1c 0a 	call	0x1438	; 0x1438 <xTaskResumeAll>
    1550:	11 23       	and	r17, r17
    1552:	a1 f3       	breq	.-24     	; 0x153c <prvIdleTask+0x6>
    1554:	0f b6       	in	r0, 0x3f	; 63
    1556:	f8 94       	cli
    1558:	0f 92       	push	r0
    155a:	e0 91 89 03 	lds	r30, 0x0389
    155e:	f0 91 8a 03 	lds	r31, 0x038A
    1562:	c6 81       	ldd	r28, Z+6	; 0x06
    1564:	d7 81       	ldd	r29, Z+7	; 0x07
    1566:	ce 01       	movw	r24, r28
    1568:	02 96       	adiw	r24, 0x02	; 2
    156a:	0e 94 e4 02 	call	0x5c8	; 0x5c8 <vListRemove>
    156e:	80 91 81 03 	lds	r24, 0x0381
    1572:	81 50       	subi	r24, 0x01	; 1
    1574:	80 93 81 03 	sts	0x0381, r24
    1578:	80 91 83 03 	lds	r24, 0x0383
    157c:	81 50       	subi	r24, 0x01	; 1
    157e:	80 93 83 03 	sts	0x0383, r24
    1582:	0f 90       	pop	r0
    1584:	0f be       	out	0x3f, r0	; 63
    1586:	8f 89       	ldd	r24, Y+23	; 0x17
    1588:	98 8d       	ldd	r25, Y+24	; 0x18
    158a:	0e 94 4a 02 	call	0x494	; 0x494 <vPortFree>
    158e:	ce 01       	movw	r24, r28
    1590:	0e 94 4a 02 	call	0x494	; 0x494 <vPortFree>
    1594:	d3 cf       	rjmp	.-90     	; 0x153c <prvIdleTask+0x6>

00001596 <vTaskDelay>:
    1596:	0f 93       	push	r16
    1598:	1f 93       	push	r17
    159a:	cf 93       	push	r28
    159c:	df 93       	push	r29
    159e:	ec 01       	movw	r28, r24
    15a0:	00 97       	sbiw	r24, 0x00	; 0
    15a2:	b1 f0       	breq	.+44     	; 0x15d0 <vTaskDelay+0x3a>
    15a4:	0e 94 60 09 	call	0x12c0	; 0x12c0 <vTaskSuspendAll>
    15a8:	00 91 54 03 	lds	r16, 0x0354
    15ac:	10 91 55 03 	lds	r17, 0x0355
    15b0:	80 91 50 03 	lds	r24, 0x0350
    15b4:	90 91 51 03 	lds	r25, 0x0351
    15b8:	02 96       	adiw	r24, 0x02	; 2
    15ba:	0e 94 e4 02 	call	0x5c8	; 0x5c8 <vListRemove>
    15be:	ce 01       	movw	r24, r28
    15c0:	80 0f       	add	r24, r16
    15c2:	91 1f       	adc	r25, r17
    15c4:	0e 94 a5 07 	call	0xf4a	; 0xf4a <prvAddCurrentTaskToDelayedList>
    15c8:	0e 94 1c 0a 	call	0x1438	; 0x1438 <xTaskResumeAll>
    15cc:	88 23       	and	r24, r24
    15ce:	11 f4       	brne	.+4      	; 0x15d4 <vTaskDelay+0x3e>
    15d0:	0e 94 e1 03 	call	0x7c2	; 0x7c2 <vPortYield>
    15d4:	df 91       	pop	r29
    15d6:	cf 91       	pop	r28
    15d8:	1f 91       	pop	r17
    15da:	0f 91       	pop	r16
    15dc:	08 95       	ret

000015de <vTaskDelayUntil>:
    15de:	0f 93       	push	r16
    15e0:	1f 93       	push	r17
    15e2:	cf 93       	push	r28
    15e4:	df 93       	push	r29
    15e6:	8c 01       	movw	r16, r24
    15e8:	eb 01       	movw	r28, r22
    15ea:	0e 94 60 09 	call	0x12c0	; 0x12c0 <vTaskSuspendAll>
    15ee:	f8 01       	movw	r30, r16
    15f0:	80 81       	ld	r24, Z
    15f2:	91 81       	ldd	r25, Z+1	; 0x01
    15f4:	c8 0f       	add	r28, r24
    15f6:	d9 1f       	adc	r29, r25
    15f8:	20 91 54 03 	lds	r18, 0x0354
    15fc:	30 91 55 03 	lds	r19, 0x0355
    1600:	28 17       	cp	r18, r24
    1602:	39 07       	cpc	r19, r25
    1604:	20 f4       	brcc	.+8      	; 0x160e <vTaskDelayUntil+0x30>
    1606:	c8 17       	cp	r28, r24
    1608:	d9 07       	cpc	r29, r25
    160a:	60 f4       	brcc	.+24     	; 0x1624 <vTaskDelayUntil+0x46>
    160c:	03 c0       	rjmp	.+6      	; 0x1614 <vTaskDelayUntil+0x36>
    160e:	c8 17       	cp	r28, r24
    1610:	d9 07       	cpc	r29, r25
    1612:	50 f0       	brcs	.+20     	; 0x1628 <vTaskDelayUntil+0x4a>
    1614:	80 91 54 03 	lds	r24, 0x0354
    1618:	90 91 55 03 	lds	r25, 0x0355
    161c:	21 e0       	ldi	r18, 0x01	; 1
    161e:	8c 17       	cp	r24, r28
    1620:	9d 07       	cpc	r25, r29
    1622:	18 f0       	brcs	.+6      	; 0x162a <vTaskDelayUntil+0x4c>
    1624:	20 e0       	ldi	r18, 0x00	; 0
    1626:	01 c0       	rjmp	.+2      	; 0x162a <vTaskDelayUntil+0x4c>
    1628:	21 e0       	ldi	r18, 0x01	; 1
    162a:	f8 01       	movw	r30, r16
    162c:	d1 83       	std	Z+1, r29	; 0x01
    162e:	c0 83       	st	Z, r28
    1630:	22 23       	and	r18, r18
    1632:	51 f0       	breq	.+20     	; 0x1648 <vTaskDelayUntil+0x6a>
    1634:	80 91 50 03 	lds	r24, 0x0350
    1638:	90 91 51 03 	lds	r25, 0x0351
    163c:	02 96       	adiw	r24, 0x02	; 2
    163e:	0e 94 e4 02 	call	0x5c8	; 0x5c8 <vListRemove>
    1642:	ce 01       	movw	r24, r28
    1644:	0e 94 a5 07 	call	0xf4a	; 0xf4a <prvAddCurrentTaskToDelayedList>
    1648:	0e 94 1c 0a 	call	0x1438	; 0x1438 <xTaskResumeAll>
    164c:	88 23       	and	r24, r24
    164e:	11 f4       	brne	.+4      	; 0x1654 <vTaskDelayUntil+0x76>
    1650:	0e 94 e1 03 	call	0x7c2	; 0x7c2 <vPortYield>
    1654:	df 91       	pop	r29
    1656:	cf 91       	pop	r28
    1658:	1f 91       	pop	r17
    165a:	0f 91       	pop	r16
    165c:	08 95       	ret

0000165e <vTaskSwitchContext>:
    165e:	80 91 56 03 	lds	r24, 0x0356
    1662:	88 23       	and	r24, r24
    1664:	49 f0       	breq	.+18     	; 0x1678 <vTaskSwitchContext+0x1a>
    1666:	81 e0       	ldi	r24, 0x01	; 1
    1668:	80 93 52 03 	sts	0x0352, r24
    166c:	08 95       	ret
    166e:	80 91 57 03 	lds	r24, 0x0357
    1672:	81 50       	subi	r24, 0x01	; 1
    1674:	80 93 57 03 	sts	0x0357, r24
    1678:	80 91 57 03 	lds	r24, 0x0357
    167c:	90 e0       	ldi	r25, 0x00	; 0
    167e:	fc 01       	movw	r30, r24
    1680:	53 e0       	ldi	r21, 0x03	; 3
    1682:	ee 0f       	add	r30, r30
    1684:	ff 1f       	adc	r31, r31
    1686:	5a 95       	dec	r21
    1688:	e1 f7       	brne	.-8      	; 0x1682 <vTaskSwitchContext+0x24>
    168a:	e8 0f       	add	r30, r24
    168c:	f9 1f       	adc	r31, r25
    168e:	e8 5a       	subi	r30, 0xA8	; 168
    1690:	fc 4f       	sbci	r31, 0xFC	; 252
    1692:	80 81       	ld	r24, Z
    1694:	88 23       	and	r24, r24
    1696:	59 f3       	breq	.-42     	; 0x166e <vTaskSwitchContext+0x10>
    1698:	80 91 57 03 	lds	r24, 0x0357
    169c:	90 e0       	ldi	r25, 0x00	; 0
    169e:	9c 01       	movw	r18, r24
    16a0:	43 e0       	ldi	r20, 0x03	; 3
    16a2:	22 0f       	add	r18, r18
    16a4:	33 1f       	adc	r19, r19
    16a6:	4a 95       	dec	r20
    16a8:	e1 f7       	brne	.-8      	; 0x16a2 <vTaskSwitchContext+0x44>
    16aa:	28 0f       	add	r18, r24
    16ac:	39 1f       	adc	r19, r25
    16ae:	f9 01       	movw	r30, r18
    16b0:	e8 5a       	subi	r30, 0xA8	; 168
    16b2:	fc 4f       	sbci	r31, 0xFC	; 252
    16b4:	a1 81       	ldd	r26, Z+1	; 0x01
    16b6:	b2 81       	ldd	r27, Z+2	; 0x02
    16b8:	12 96       	adiw	r26, 0x02	; 2
    16ba:	0d 90       	ld	r0, X+
    16bc:	bc 91       	ld	r27, X
    16be:	a0 2d       	mov	r26, r0
    16c0:	b2 83       	std	Z+2, r27	; 0x02
    16c2:	a1 83       	std	Z+1, r26	; 0x01
    16c4:	25 5a       	subi	r18, 0xA5	; 165
    16c6:	3c 4f       	sbci	r19, 0xFC	; 252
    16c8:	a2 17       	cp	r26, r18
    16ca:	b3 07       	cpc	r27, r19
    16cc:	31 f4       	brne	.+12     	; 0x16da <vTaskSwitchContext+0x7c>
    16ce:	12 96       	adiw	r26, 0x02	; 2
    16d0:	2d 91       	ld	r18, X+
    16d2:	3c 91       	ld	r19, X
    16d4:	13 97       	sbiw	r26, 0x03	; 3
    16d6:	32 83       	std	Z+2, r19	; 0x02
    16d8:	21 83       	std	Z+1, r18	; 0x01
    16da:	fc 01       	movw	r30, r24
    16dc:	b3 e0       	ldi	r27, 0x03	; 3
    16de:	ee 0f       	add	r30, r30
    16e0:	ff 1f       	adc	r31, r31
    16e2:	ba 95       	dec	r27
    16e4:	e1 f7       	brne	.-8      	; 0x16de <vTaskSwitchContext+0x80>
    16e6:	e8 0f       	add	r30, r24
    16e8:	f9 1f       	adc	r31, r25
    16ea:	e8 5a       	subi	r30, 0xA8	; 168
    16ec:	fc 4f       	sbci	r31, 0xFC	; 252
    16ee:	01 80       	ldd	r0, Z+1	; 0x01
    16f0:	f2 81       	ldd	r31, Z+2	; 0x02
    16f2:	e0 2d       	mov	r30, r0
    16f4:	86 81       	ldd	r24, Z+6	; 0x06
    16f6:	97 81       	ldd	r25, Z+7	; 0x07
    16f8:	90 93 51 03 	sts	0x0351, r25
    16fc:	80 93 50 03 	sts	0x0350, r24
    1700:	08 95       	ret

00001702 <vTaskPlaceOnEventList>:
    1702:	cf 93       	push	r28
    1704:	df 93       	push	r29
    1706:	eb 01       	movw	r28, r22
    1708:	60 91 50 03 	lds	r22, 0x0350
    170c:	70 91 51 03 	lds	r23, 0x0351
    1710:	64 5f       	subi	r22, 0xF4	; 244
    1712:	7f 4f       	sbci	r23, 0xFF	; 255
    1714:	0e 94 ad 02 	call	0x55a	; 0x55a <vListInsert>
    1718:	80 91 50 03 	lds	r24, 0x0350
    171c:	90 91 51 03 	lds	r25, 0x0351
    1720:	02 96       	adiw	r24, 0x02	; 2
    1722:	0e 94 e4 02 	call	0x5c8	; 0x5c8 <vListRemove>
    1726:	80 91 54 03 	lds	r24, 0x0354
    172a:	90 91 55 03 	lds	r25, 0x0355
    172e:	8c 0f       	add	r24, r28
    1730:	9d 1f       	adc	r25, r29
    1732:	0e 94 a5 07 	call	0xf4a	; 0xf4a <prvAddCurrentTaskToDelayedList>
    1736:	df 91       	pop	r29
    1738:	cf 91       	pop	r28
    173a:	08 95       	ret

0000173c <xTaskRemoveFromEventList>:
    173c:	0f 93       	push	r16
    173e:	1f 93       	push	r17
    1740:	cf 93       	push	r28
    1742:	df 93       	push	r29
    1744:	dc 01       	movw	r26, r24
    1746:	15 96       	adiw	r26, 0x05	; 5
    1748:	ed 91       	ld	r30, X+
    174a:	fc 91       	ld	r31, X
    174c:	16 97       	sbiw	r26, 0x06	; 6
    174e:	c6 81       	ldd	r28, Z+6	; 0x06
    1750:	d7 81       	ldd	r29, Z+7	; 0x07
    1752:	8e 01       	movw	r16, r28
    1754:	04 5f       	subi	r16, 0xF4	; 244
    1756:	1f 4f       	sbci	r17, 0xFF	; 255
    1758:	c8 01       	movw	r24, r16
    175a:	0e 94 e4 02 	call	0x5c8	; 0x5c8 <vListRemove>
    175e:	80 91 56 03 	lds	r24, 0x0356
    1762:	88 23       	and	r24, r24
    1764:	c9 f4       	brne	.+50     	; 0x1798 <xTaskRemoveFromEventList+0x5c>
    1766:	8e 01       	movw	r16, r28
    1768:	0e 5f       	subi	r16, 0xFE	; 254
    176a:	1f 4f       	sbci	r17, 0xFF	; 255
    176c:	c8 01       	movw	r24, r16
    176e:	0e 94 e4 02 	call	0x5c8	; 0x5c8 <vListRemove>
    1772:	2e 89       	ldd	r18, Y+22	; 0x16
    1774:	80 91 57 03 	lds	r24, 0x0357
    1778:	82 17       	cp	r24, r18
    177a:	10 f4       	brcc	.+4      	; 0x1780 <xTaskRemoveFromEventList+0x44>
    177c:	20 93 57 03 	sts	0x0357, r18
    1780:	30 e0       	ldi	r19, 0x00	; 0
    1782:	c9 01       	movw	r24, r18
    1784:	63 e0       	ldi	r22, 0x03	; 3
    1786:	88 0f       	add	r24, r24
    1788:	99 1f       	adc	r25, r25
    178a:	6a 95       	dec	r22
    178c:	e1 f7       	brne	.-8      	; 0x1786 <xTaskRemoveFromEventList+0x4a>
    178e:	82 0f       	add	r24, r18
    1790:	93 1f       	adc	r25, r19
    1792:	88 5a       	subi	r24, 0xA8	; 168
    1794:	9c 4f       	sbci	r25, 0xFC	; 252
    1796:	02 c0       	rjmp	.+4      	; 0x179c <xTaskRemoveFromEventList+0x60>
    1798:	83 e7       	ldi	r24, 0x73	; 115
    179a:	93 e0       	ldi	r25, 0x03	; 3
    179c:	b8 01       	movw	r22, r16
    179e:	0e 94 88 02 	call	0x510	; 0x510 <vListInsertEnd>
    17a2:	e0 91 50 03 	lds	r30, 0x0350
    17a6:	f0 91 51 03 	lds	r31, 0x0351
    17aa:	81 e0       	ldi	r24, 0x01	; 1
    17ac:	2e 89       	ldd	r18, Y+22	; 0x16
    17ae:	96 89       	ldd	r25, Z+22	; 0x16
    17b0:	29 17       	cp	r18, r25
    17b2:	08 f4       	brcc	.+2      	; 0x17b6 <xTaskRemoveFromEventList+0x7a>
    17b4:	80 e0       	ldi	r24, 0x00	; 0
    17b6:	df 91       	pop	r29
    17b8:	cf 91       	pop	r28
    17ba:	1f 91       	pop	r17
    17bc:	0f 91       	pop	r16
    17be:	08 95       	ret

000017c0 <vTaskSetTimeOutState>:
    17c0:	fc 01       	movw	r30, r24
    17c2:	80 91 53 03 	lds	r24, 0x0353
    17c6:	80 83       	st	Z, r24
    17c8:	80 91 54 03 	lds	r24, 0x0354
    17cc:	90 91 55 03 	lds	r25, 0x0355
    17d0:	92 83       	std	Z+2, r25	; 0x02
    17d2:	81 83       	std	Z+1, r24	; 0x01
    17d4:	08 95       	ret

000017d6 <xTaskCheckForTimeOut>:
    17d6:	fc 01       	movw	r30, r24
    17d8:	db 01       	movw	r26, r22
    17da:	0f b6       	in	r0, 0x3f	; 63
    17dc:	f8 94       	cli
    17de:	0f 92       	push	r0
    17e0:	90 91 53 03 	lds	r25, 0x0353
    17e4:	80 81       	ld	r24, Z
    17e6:	98 17       	cp	r25, r24
    17e8:	49 f0       	breq	.+18     	; 0x17fc <xTaskCheckForTimeOut+0x26>
    17ea:	20 91 54 03 	lds	r18, 0x0354
    17ee:	30 91 55 03 	lds	r19, 0x0355
    17f2:	81 81       	ldd	r24, Z+1	; 0x01
    17f4:	92 81       	ldd	r25, Z+2	; 0x02
    17f6:	28 17       	cp	r18, r24
    17f8:	39 07       	cpc	r19, r25
    17fa:	20 f5       	brcc	.+72     	; 0x1844 <xTaskCheckForTimeOut+0x6e>
    17fc:	20 91 54 03 	lds	r18, 0x0354
    1800:	30 91 55 03 	lds	r19, 0x0355
    1804:	81 81       	ldd	r24, Z+1	; 0x01
    1806:	92 81       	ldd	r25, Z+2	; 0x02
    1808:	4d 91       	ld	r20, X+
    180a:	5c 91       	ld	r21, X
    180c:	11 97       	sbiw	r26, 0x01	; 1
    180e:	28 1b       	sub	r18, r24
    1810:	39 0b       	sbc	r19, r25
    1812:	24 17       	cp	r18, r20
    1814:	35 07       	cpc	r19, r21
    1816:	b0 f4       	brcc	.+44     	; 0x1844 <xTaskCheckForTimeOut+0x6e>
    1818:	20 91 54 03 	lds	r18, 0x0354
    181c:	30 91 55 03 	lds	r19, 0x0355
    1820:	82 1b       	sub	r24, r18
    1822:	93 0b       	sbc	r25, r19
    1824:	84 0f       	add	r24, r20
    1826:	95 1f       	adc	r25, r21
    1828:	11 96       	adiw	r26, 0x01	; 1
    182a:	9c 93       	st	X, r25
    182c:	8e 93       	st	-X, r24
    182e:	80 91 53 03 	lds	r24, 0x0353
    1832:	80 83       	st	Z, r24
    1834:	80 91 54 03 	lds	r24, 0x0354
    1838:	90 91 55 03 	lds	r25, 0x0355
    183c:	92 83       	std	Z+2, r25	; 0x02
    183e:	81 83       	std	Z+1, r24	; 0x01
    1840:	80 e0       	ldi	r24, 0x00	; 0
    1842:	01 c0       	rjmp	.+2      	; 0x1846 <xTaskCheckForTimeOut+0x70>
    1844:	81 e0       	ldi	r24, 0x01	; 1
    1846:	0f 90       	pop	r0
    1848:	0f be       	out	0x3f, r0	; 63
    184a:	08 95       	ret

0000184c <vTaskMissedYield>:
    184c:	81 e0       	ldi	r24, 0x01	; 1
    184e:	80 93 52 03 	sts	0x0352, r24
    1852:	08 95       	ret

00001854 <USART_Init>:
    1854:	10 bc       	out	0x20, r1	; 32
    1856:	83 e3       	ldi	r24, 0x33	; 51
    1858:	89 b9       	out	0x09, r24	; 9
    185a:	80 b5       	in	r24, 0x20	; 32
    185c:	8e 60       	ori	r24, 0x0E	; 14
    185e:	80 bd       	out	0x20, r24	; 32
    1860:	8a b1       	in	r24, 0x0a	; 10
    1862:	88 61       	ori	r24, 0x18	; 24
    1864:	8a b9       	out	0x0a, r24	; 10
    1866:	08 95       	ret

00001868 <USART_Transmit>:
    1868:	5d 9b       	sbis	0x0b, 5	; 11
    186a:	fe cf       	rjmp	.-4      	; 0x1868 <USART_Transmit>
    186c:	8c b9       	out	0x0c, r24	; 12
    186e:	08 95       	ret

00001870 <USART_Receive>:
    1870:	5f 9b       	sbis	0x0b, 7	; 11
    1872:	fe cf       	rjmp	.-4      	; 0x1870 <USART_Receive>
    1874:	8c b1       	in	r24, 0x0c	; 12
    1876:	08 95       	ret

00001878 <USART_putstring>:
    1878:	1f 93       	push	r17
    187a:	cf 93       	push	r28
    187c:	df 93       	push	r29
    187e:	ec 01       	movw	r28, r24
    1880:	10 e0       	ldi	r17, 0x00	; 0
    1882:	03 c0       	rjmp	.+6      	; 0x188a <USART_putstring+0x12>
    1884:	0e 94 34 0c 	call	0x1868	; 0x1868 <USART_Transmit>
    1888:	1f 5f       	subi	r17, 0xFF	; 255
    188a:	fe 01       	movw	r30, r28
    188c:	e1 0f       	add	r30, r17
    188e:	f1 1d       	adc	r31, r1
    1890:	80 81       	ld	r24, Z
    1892:	88 23       	and	r24, r24
    1894:	b9 f7       	brne	.-18     	; 0x1884 <USART_putstring+0xc>
    1896:	df 91       	pop	r29
    1898:	cf 91       	pop	r28
    189a:	1f 91       	pop	r17
    189c:	08 95       	ret

0000189e <memcpy>:
    189e:	fb 01       	movw	r30, r22
    18a0:	dc 01       	movw	r26, r24
    18a2:	02 c0       	rjmp	.+4      	; 0x18a8 <memcpy+0xa>
    18a4:	01 90       	ld	r0, Z+
    18a6:	0d 92       	st	X+, r0
    18a8:	41 50       	subi	r20, 0x01	; 1
    18aa:	50 40       	sbci	r21, 0x00	; 0
    18ac:	d8 f7       	brcc	.-10     	; 0x18a4 <memcpy+0x6>
    18ae:	08 95       	ret

000018b0 <memset>:
    18b0:	dc 01       	movw	r26, r24
    18b2:	01 c0       	rjmp	.+2      	; 0x18b6 <memset+0x6>
    18b4:	6d 93       	st	X+, r22
    18b6:	41 50       	subi	r20, 0x01	; 1
    18b8:	50 40       	sbci	r21, 0x00	; 0
    18ba:	e0 f7       	brcc	.-8      	; 0x18b4 <memset+0x4>
    18bc:	08 95       	ret

000018be <strncpy>:
    18be:	fb 01       	movw	r30, r22
    18c0:	dc 01       	movw	r26, r24
    18c2:	41 50       	subi	r20, 0x01	; 1
    18c4:	50 40       	sbci	r21, 0x00	; 0
    18c6:	48 f0       	brcs	.+18     	; 0x18da <strncpy+0x1c>
    18c8:	01 90       	ld	r0, Z+
    18ca:	0d 92       	st	X+, r0
    18cc:	00 20       	and	r0, r0
    18ce:	c9 f7       	brne	.-14     	; 0x18c2 <strncpy+0x4>
    18d0:	01 c0       	rjmp	.+2      	; 0x18d4 <strncpy+0x16>
    18d2:	1d 92       	st	X+, r1
    18d4:	41 50       	subi	r20, 0x01	; 1
    18d6:	50 40       	sbci	r21, 0x00	; 0
    18d8:	e0 f7       	brcc	.-8      	; 0x18d2 <strncpy+0x14>
    18da:	08 95       	ret

000018dc <_exit>:
    18dc:	f8 94       	cli

000018de <__stop_program>:
    18de:	ff cf       	rjmp	.-2      	; 0x18de <__stop_program>
