
Tut11_BinarySem_ExternalInterrupt.elf:     file format elf32-avr

Sections:
Idx Name          Size      VMA       LMA       File off  Algn
  0 .text         00001ae6  00000000  00000000  00000094  2**1
                  CONTENTS, ALLOC, LOAD, READONLY, CODE
  1 .data         0000000e  00800060  00001ae6  00001b7a  2**0
                  CONTENTS, ALLOC, LOAD, DATA
  2 .bss          000002e7  0080006e  0080006e  00001b88  2**0
                  ALLOC

Disassembly of section .text:

00000000 <__vectors>:
       0:	0c 94 2a 00 	jmp	0x54	; 0x54 <__ctors_end>
       4:	0c 94 df 02 	jmp	0x5be	; 0x5be <__vector_1>
       8:	0c 94 47 00 	jmp	0x8e	; 0x8e <__bad_interrupt>
       c:	0c 94 47 00 	jmp	0x8e	; 0x8e <__bad_interrupt>
      10:	0c 94 47 00 	jmp	0x8e	; 0x8e <__bad_interrupt>
      14:	0c 94 47 00 	jmp	0x8e	; 0x8e <__bad_interrupt>
      18:	0c 94 47 00 	jmp	0x8e	; 0x8e <__bad_interrupt>
      1c:	0c 94 41 04 	jmp	0x882	; 0x882 <__vector_7>
      20:	0c 94 47 00 	jmp	0x8e	; 0x8e <__bad_interrupt>
      24:	0c 94 47 00 	jmp	0x8e	; 0x8e <__bad_interrupt>
      28:	0c 94 47 00 	jmp	0x8e	; 0x8e <__bad_interrupt>
      2c:	0c 94 47 00 	jmp	0x8e	; 0x8e <__bad_interrupt>
      30:	0c 94 47 00 	jmp	0x8e	; 0x8e <__bad_interrupt>
      34:	0c 94 47 00 	jmp	0x8e	; 0x8e <__bad_interrupt>
      38:	0c 94 47 00 	jmp	0x8e	; 0x8e <__bad_interrupt>
      3c:	0c 94 47 00 	jmp	0x8e	; 0x8e <__bad_interrupt>
      40:	0c 94 47 00 	jmp	0x8e	; 0x8e <__bad_interrupt>
      44:	0c 94 47 00 	jmp	0x8e	; 0x8e <__bad_interrupt>
      48:	0c 94 47 00 	jmp	0x8e	; 0x8e <__bad_interrupt>
      4c:	0c 94 47 00 	jmp	0x8e	; 0x8e <__bad_interrupt>
      50:	0c 94 47 00 	jmp	0x8e	; 0x8e <__bad_interrupt>

00000054 <__ctors_end>:
      54:	11 24       	eor	r1, r1
      56:	1f be       	out	0x3f, r1	; 63
      58:	cf e5       	ldi	r28, 0x5F	; 95
      5a:	d8 e0       	ldi	r29, 0x08	; 8
      5c:	de bf       	out	0x3e, r29	; 62
      5e:	cd bf       	out	0x3d, r28	; 61

00000060 <__do_copy_data>:
      60:	10 e0       	ldi	r17, 0x00	; 0
      62:	a0 e6       	ldi	r26, 0x60	; 96
      64:	b0 e0       	ldi	r27, 0x00	; 0
      66:	e6 ee       	ldi	r30, 0xE6	; 230
      68:	fa e1       	ldi	r31, 0x1A	; 26
      6a:	02 c0       	rjmp	.+4      	; 0x70 <.do_copy_data_start>

0000006c <.do_copy_data_loop>:
      6c:	05 90       	lpm	r0, Z+
      6e:	0d 92       	st	X+, r0

00000070 <.do_copy_data_start>:
      70:	ae 36       	cpi	r26, 0x6E	; 110
      72:	b1 07       	cpc	r27, r17
      74:	d9 f7       	brne	.-10     	; 0x6c <.do_copy_data_loop>

00000076 <__do_clear_bss>:
      76:	13 e0       	ldi	r17, 0x03	; 3
      78:	ae e6       	ldi	r26, 0x6E	; 110
      7a:	b0 e0       	ldi	r27, 0x00	; 0
      7c:	01 c0       	rjmp	.+2      	; 0x80 <.do_clear_bss_start>

0000007e <.do_clear_bss_loop>:
      7e:	1d 92       	st	X+, r1

00000080 <.do_clear_bss_start>:
      80:	a5 35       	cpi	r26, 0x55	; 85
      82:	b1 07       	cpc	r27, r17
      84:	e1 f7       	brne	.-8      	; 0x7e <.do_clear_bss_loop>
      86:	0e 94 15 03 	call	0x62a	; 0x62a <main>
      8a:	0c 94 71 0d 	jmp	0x1ae2	; 0x1ae2 <_exit>

0000008e <__bad_interrupt>:
      8e:	0c 94 00 00 	jmp	0	; 0x0 <__vectors>

00000092 <xCoRoutineRemoveFromEventList>:
      92:	ef 92       	push	r14
      94:	ff 92       	push	r15
      96:	0f 93       	push	r16
      98:	1f 93       	push	r17
      9a:	fc 01       	movw	r30, r24
      9c:	05 80       	ldd	r0, Z+5	; 0x05
      9e:	f6 81       	ldd	r31, Z+6	; 0x06
      a0:	e0 2d       	mov	r30, r0
      a2:	e6 80       	ldd	r14, Z+6	; 0x06
      a4:	f7 80       	ldd	r15, Z+7	; 0x07
      a6:	87 01       	movw	r16, r14
      a8:	04 5f       	subi	r16, 0xF4	; 244
      aa:	1f 4f       	sbci	r17, 0xFF	; 255
      ac:	c8 01       	movw	r24, r16
      ae:	0e 94 b7 02 	call	0x56e	; 0x56e <vListRemove>
      b2:	8f e9       	ldi	r24, 0x9F	; 159
      b4:	90 e0       	ldi	r25, 0x00	; 0
      b6:	b8 01       	movw	r22, r16
      b8:	0e 94 59 02 	call	0x4b2	; 0x4b2 <vListInsertEnd>
      bc:	20 e0       	ldi	r18, 0x00	; 0
      be:	e0 91 6e 00 	lds	r30, 0x006E
      c2:	f0 91 6f 00 	lds	r31, 0x006F
      c6:	d7 01       	movw	r26, r14
      c8:	56 96       	adiw	r26, 0x16	; 22
      ca:	9c 91       	ld	r25, X
      cc:	86 89       	ldd	r24, Z+22	; 0x16
      ce:	98 17       	cp	r25, r24
      d0:	08 f0       	brcs	.+2      	; 0xd4 <xCoRoutineRemoveFromEventList+0x42>
      d2:	21 e0       	ldi	r18, 0x01	; 1
      d4:	82 2f       	mov	r24, r18
      d6:	1f 91       	pop	r17
      d8:	0f 91       	pop	r16
      da:	ff 90       	pop	r15
      dc:	ef 90       	pop	r14
      de:	08 95       	ret

000000e0 <vCoRoutineSchedule>:
      e0:	ff 92       	push	r15
      e2:	0f 93       	push	r16
      e4:	1f 93       	push	r17
      e6:	cf 93       	push	r28
      e8:	df 93       	push	r29
      ea:	99 e0       	ldi	r25, 0x09	; 9
      ec:	f9 2e       	mov	r15, r25
      ee:	21 c0       	rjmp	.+66     	; 0x132 <vCoRoutineSchedule+0x52>
      f0:	f8 94       	cli
      f2:	e0 91 a4 00 	lds	r30, 0x00A4
      f6:	f0 91 a5 00 	lds	r31, 0x00A5
      fa:	06 81       	ldd	r16, Z+6	; 0x06
      fc:	17 81       	ldd	r17, Z+7	; 0x07
      fe:	c8 01       	movw	r24, r16
     100:	0c 96       	adiw	r24, 0x0c	; 12
     102:	0e 94 b7 02 	call	0x56e	; 0x56e <vListRemove>
     106:	78 94       	sei
     108:	e8 01       	movw	r28, r16
     10a:	22 96       	adiw	r28, 0x02	; 2
     10c:	ce 01       	movw	r24, r28
     10e:	0e 94 b7 02 	call	0x56e	; 0x56e <vListRemove>
     112:	f8 01       	movw	r30, r16
     114:	96 89       	ldd	r25, Z+22	; 0x16
     116:	80 91 70 00 	lds	r24, 0x0070
     11a:	89 17       	cp	r24, r25
     11c:	10 f4       	brcc	.+4      	; 0x122 <vCoRoutineSchedule+0x42>
     11e:	90 93 70 00 	sts	0x0070, r25
     122:	9f 9d       	mul	r25, r15
     124:	c0 01       	movw	r24, r0
     126:	11 24       	eor	r1, r1
     128:	89 58       	subi	r24, 0x89	; 137
     12a:	9f 4f       	sbci	r25, 0xFF	; 255
     12c:	be 01       	movw	r22, r28
     12e:	0e 94 59 02 	call	0x4b2	; 0x4b2 <vListInsertEnd>
     132:	80 91 9f 00 	lds	r24, 0x009F
     136:	88 23       	and	r24, r24
     138:	d9 f6       	brne	.-74     	; 0xf0 <vCoRoutineSchedule+0x10>
     13a:	0e 94 30 08 	call	0x1060	; 0x1060 <xTaskGetTickCount>
     13e:	20 91 71 00 	lds	r18, 0x0071
     142:	30 91 72 00 	lds	r19, 0x0072
     146:	82 1b       	sub	r24, r18
     148:	93 0b       	sbc	r25, r19
     14a:	90 93 74 00 	sts	0x0074, r25
     14e:	80 93 73 00 	sts	0x0073, r24
     152:	89 e0       	ldi	r24, 0x09	; 9
     154:	f8 2e       	mov	r15, r24
     156:	53 c0       	rjmp	.+166    	; 0x1fe <vCoRoutineSchedule+0x11e>
     158:	01 96       	adiw	r24, 0x01	; 1
     15a:	90 93 76 00 	sts	0x0076, r25
     15e:	80 93 75 00 	sts	0x0075, r24
     162:	21 50       	subi	r18, 0x01	; 1
     164:	30 40       	sbci	r19, 0x00	; 0
     166:	30 93 74 00 	sts	0x0074, r19
     16a:	20 93 73 00 	sts	0x0073, r18
     16e:	89 2b       	or	r24, r25
     170:	09 f0       	breq	.+2      	; 0x174 <vCoRoutineSchedule+0x94>
     172:	3e c0       	rjmp	.+124    	; 0x1f0 <vCoRoutineSchedule+0x110>
     174:	20 91 9b 00 	lds	r18, 0x009B
     178:	30 91 9c 00 	lds	r19, 0x009C
     17c:	80 91 9d 00 	lds	r24, 0x009D
     180:	90 91 9e 00 	lds	r25, 0x009E
     184:	90 93 9c 00 	sts	0x009C, r25
     188:	80 93 9b 00 	sts	0x009B, r24
     18c:	30 93 9e 00 	sts	0x009E, r19
     190:	20 93 9d 00 	sts	0x009D, r18
     194:	2d c0       	rjmp	.+90     	; 0x1f0 <vCoRoutineSchedule+0x110>
     196:	05 80       	ldd	r0, Z+5	; 0x05
     198:	f6 81       	ldd	r31, Z+6	; 0x06
     19a:	e0 2d       	mov	r30, r0
     19c:	c6 81       	ldd	r28, Z+6	; 0x06
     19e:	d7 81       	ldd	r29, Z+7	; 0x07
     1a0:	20 91 75 00 	lds	r18, 0x0075
     1a4:	30 91 76 00 	lds	r19, 0x0076
     1a8:	8a 81       	ldd	r24, Y+2	; 0x02
     1aa:	9b 81       	ldd	r25, Y+3	; 0x03
     1ac:	28 17       	cp	r18, r24
     1ae:	39 07       	cpc	r19, r25
     1b0:	30 f1       	brcs	.+76     	; 0x1fe <vCoRoutineSchedule+0x11e>
     1b2:	f8 94       	cli
     1b4:	8e 01       	movw	r16, r28
     1b6:	0e 5f       	subi	r16, 0xFE	; 254
     1b8:	1f 4f       	sbci	r17, 0xFF	; 255
     1ba:	c8 01       	movw	r24, r16
     1bc:	0e 94 b7 02 	call	0x56e	; 0x56e <vListRemove>
     1c0:	8c 89       	ldd	r24, Y+20	; 0x14
     1c2:	9d 89       	ldd	r25, Y+21	; 0x15
     1c4:	89 2b       	or	r24, r25
     1c6:	21 f0       	breq	.+8      	; 0x1d0 <vCoRoutineSchedule+0xf0>
     1c8:	ce 01       	movw	r24, r28
     1ca:	0c 96       	adiw	r24, 0x0c	; 12
     1cc:	0e 94 b7 02 	call	0x56e	; 0x56e <vListRemove>
     1d0:	78 94       	sei
     1d2:	9e 89       	ldd	r25, Y+22	; 0x16
     1d4:	80 91 70 00 	lds	r24, 0x0070
     1d8:	89 17       	cp	r24, r25
     1da:	10 f4       	brcc	.+4      	; 0x1e0 <vCoRoutineSchedule+0x100>
     1dc:	90 93 70 00 	sts	0x0070, r25
     1e0:	9f 9d       	mul	r25, r15
     1e2:	c0 01       	movw	r24, r0
     1e4:	11 24       	eor	r1, r1
     1e6:	89 58       	subi	r24, 0x89	; 137
     1e8:	9f 4f       	sbci	r25, 0xFF	; 255
     1ea:	b8 01       	movw	r22, r16
     1ec:	0e 94 59 02 	call	0x4b2	; 0x4b2 <vListInsertEnd>
     1f0:	e0 91 9b 00 	lds	r30, 0x009B
     1f4:	f0 91 9c 00 	lds	r31, 0x009C
     1f8:	80 81       	ld	r24, Z
     1fa:	88 23       	and	r24, r24
     1fc:	61 f6       	brne	.-104    	; 0x196 <vCoRoutineSchedule+0xb6>
     1fe:	20 91 73 00 	lds	r18, 0x0073
     202:	30 91 74 00 	lds	r19, 0x0074
     206:	80 91 75 00 	lds	r24, 0x0075
     20a:	90 91 76 00 	lds	r25, 0x0076
     20e:	21 15       	cp	r18, r1
     210:	31 05       	cpc	r19, r1
     212:	09 f0       	breq	.+2      	; 0x216 <vCoRoutineSchedule+0x136>
     214:	a1 cf       	rjmp	.-190    	; 0x158 <vCoRoutineSchedule+0x78>
     216:	90 93 72 00 	sts	0x0072, r25
     21a:	80 93 71 00 	sts	0x0071, r24
     21e:	90 91 70 00 	lds	r25, 0x0070
     222:	29 e0       	ldi	r18, 0x09	; 9
     224:	06 c0       	rjmp	.+12     	; 0x232 <vCoRoutineSchedule+0x152>
     226:	99 23       	and	r25, r25
     228:	19 f4       	brne	.+6      	; 0x230 <vCoRoutineSchedule+0x150>
     22a:	10 92 70 00 	sts	0x0070, r1
     22e:	32 c0       	rjmp	.+100    	; 0x294 <vCoRoutineSchedule+0x1b4>
     230:	91 50       	subi	r25, 0x01	; 1
     232:	92 9f       	mul	r25, r18
     234:	d0 01       	movw	r26, r0
     236:	11 24       	eor	r1, r1
     238:	a9 58       	subi	r26, 0x89	; 137
     23a:	bf 4f       	sbci	r27, 0xFF	; 255
     23c:	8c 91       	ld	r24, X
     23e:	88 23       	and	r24, r24
     240:	91 f3       	breq	.-28     	; 0x226 <vCoRoutineSchedule+0x146>
     242:	90 93 70 00 	sts	0x0070, r25
     246:	11 96       	adiw	r26, 0x01	; 1
     248:	ed 91       	ld	r30, X+
     24a:	fc 91       	ld	r31, X
     24c:	12 97       	sbiw	r26, 0x02	; 2
     24e:	02 80       	ldd	r0, Z+2	; 0x02
     250:	f3 81       	ldd	r31, Z+3	; 0x03
     252:	e0 2d       	mov	r30, r0
     254:	12 96       	adiw	r26, 0x02	; 2
     256:	fc 93       	st	X, r31
     258:	ee 93       	st	-X, r30
     25a:	11 97       	sbiw	r26, 0x01	; 1
     25c:	cd 01       	movw	r24, r26
     25e:	03 96       	adiw	r24, 0x03	; 3
     260:	e8 17       	cp	r30, r24
     262:	f9 07       	cpc	r31, r25
     264:	31 f4       	brne	.+12     	; 0x272 <vCoRoutineSchedule+0x192>
     266:	82 81       	ldd	r24, Z+2	; 0x02
     268:	93 81       	ldd	r25, Z+3	; 0x03
     26a:	12 96       	adiw	r26, 0x02	; 2
     26c:	9c 93       	st	X, r25
     26e:	8e 93       	st	-X, r24
     270:	11 97       	sbiw	r26, 0x01	; 1
     272:	11 96       	adiw	r26, 0x01	; 1
     274:	ed 91       	ld	r30, X+
     276:	fc 91       	ld	r31, X
     278:	12 97       	sbiw	r26, 0x02	; 2
     27a:	06 80       	ldd	r0, Z+6	; 0x06
     27c:	f7 81       	ldd	r31, Z+7	; 0x07
     27e:	e0 2d       	mov	r30, r0
     280:	f0 93 6f 00 	sts	0x006F, r31
     284:	e0 93 6e 00 	sts	0x006E, r30
     288:	20 81       	ld	r18, Z
     28a:	31 81       	ldd	r19, Z+1	; 0x01
     28c:	cf 01       	movw	r24, r30
     28e:	67 89       	ldd	r22, Z+23	; 0x17
     290:	f9 01       	movw	r30, r18
     292:	09 95       	icall
     294:	df 91       	pop	r29
     296:	cf 91       	pop	r28
     298:	1f 91       	pop	r17
     29a:	0f 91       	pop	r16
     29c:	ff 90       	pop	r15
     29e:	08 95       	ret

000002a0 <vCoRoutineAddToDelayedList>:
     2a0:	0f 93       	push	r16
     2a2:	1f 93       	push	r17
     2a4:	cf 93       	push	r28
     2a6:	df 93       	push	r29
     2a8:	eb 01       	movw	r28, r22
     2aa:	00 91 75 00 	lds	r16, 0x0075
     2ae:	10 91 76 00 	lds	r17, 0x0076
     2b2:	08 0f       	add	r16, r24
     2b4:	19 1f       	adc	r17, r25
     2b6:	80 91 6e 00 	lds	r24, 0x006E
     2ba:	90 91 6f 00 	lds	r25, 0x006F
     2be:	02 96       	adiw	r24, 0x02	; 2
     2c0:	0e 94 b7 02 	call	0x56e	; 0x56e <vListRemove>
     2c4:	e0 91 6e 00 	lds	r30, 0x006E
     2c8:	f0 91 6f 00 	lds	r31, 0x006F
     2cc:	13 83       	std	Z+3, r17	; 0x03
     2ce:	02 83       	std	Z+2, r16	; 0x02
     2d0:	80 91 75 00 	lds	r24, 0x0075
     2d4:	90 91 76 00 	lds	r25, 0x0076
     2d8:	bf 01       	movw	r22, r30
     2da:	6e 5f       	subi	r22, 0xFE	; 254
     2dc:	7f 4f       	sbci	r23, 0xFF	; 255
     2de:	08 17       	cp	r16, r24
     2e0:	19 07       	cpc	r17, r25
     2e2:	28 f4       	brcc	.+10     	; 0x2ee <vCoRoutineAddToDelayedList+0x4e>
     2e4:	80 91 9d 00 	lds	r24, 0x009D
     2e8:	90 91 9e 00 	lds	r25, 0x009E
     2ec:	04 c0       	rjmp	.+8      	; 0x2f6 <vCoRoutineAddToDelayedList+0x56>
     2ee:	80 91 9b 00 	lds	r24, 0x009B
     2f2:	90 91 9c 00 	lds	r25, 0x009C
     2f6:	0e 94 82 02 	call	0x504	; 0x504 <vListInsert>
     2fa:	20 97       	sbiw	r28, 0x00	; 0
     2fc:	49 f0       	breq	.+18     	; 0x310 <vCoRoutineAddToDelayedList+0x70>
     2fe:	60 91 6e 00 	lds	r22, 0x006E
     302:	70 91 6f 00 	lds	r23, 0x006F
     306:	64 5f       	subi	r22, 0xF4	; 244
     308:	7f 4f       	sbci	r23, 0xFF	; 255
     30a:	ce 01       	movw	r24, r28
     30c:	0e 94 82 02 	call	0x504	; 0x504 <vListInsert>
     310:	df 91       	pop	r29
     312:	cf 91       	pop	r28
     314:	1f 91       	pop	r17
     316:	0f 91       	pop	r16
     318:	08 95       	ret

0000031a <xCoRoutineCreate>:
     31a:	af 92       	push	r10
     31c:	bf 92       	push	r11
     31e:	cf 92       	push	r12
     320:	df 92       	push	r13
     322:	ef 92       	push	r14
     324:	ff 92       	push	r15
     326:	0f 93       	push	r16
     328:	1f 93       	push	r17
     32a:	cf 93       	push	r28
     32c:	df 93       	push	r29
     32e:	6c 01       	movw	r12, r24
     330:	b6 2e       	mov	r11, r22
     332:	a4 2e       	mov	r10, r20
     334:	8a e1       	ldi	r24, 0x1A	; 26
     336:	90 e0       	ldi	r25, 0x00	; 0
     338:	0e 94 17 02 	call	0x42e	; 0x42e <pvPortMalloc>
     33c:	ec 01       	movw	r28, r24
     33e:	00 97       	sbiw	r24, 0x00	; 0
     340:	11 f4       	brne	.+4      	; 0x346 <xCoRoutineCreate+0x2c>
     342:	8f ef       	ldi	r24, 0xFF	; 255
     344:	59 c0       	rjmp	.+178    	; 0x3f8 <xCoRoutineCreate+0xde>
     346:	80 91 6e 00 	lds	r24, 0x006E
     34a:	90 91 6f 00 	lds	r25, 0x006F
     34e:	89 2b       	or	r24, r25
     350:	21 f5       	brne	.+72     	; 0x39a <xCoRoutineCreate+0x80>
     352:	d0 93 6f 00 	sts	0x006F, r29
     356:	c0 93 6e 00 	sts	0x006E, r28
     35a:	87 e7       	ldi	r24, 0x77	; 119
     35c:	90 e0       	ldi	r25, 0x00	; 0
     35e:	0e 94 45 02 	call	0x48a	; 0x48a <vListInitialise>
     362:	80 e8       	ldi	r24, 0x80	; 128
     364:	90 e0       	ldi	r25, 0x00	; 0
     366:	0e 94 45 02 	call	0x48a	; 0x48a <vListInitialise>
     36a:	29 e8       	ldi	r18, 0x89	; 137
     36c:	e2 2e       	mov	r14, r18
     36e:	20 e0       	ldi	r18, 0x00	; 0
     370:	f2 2e       	mov	r15, r18
     372:	c7 01       	movw	r24, r14
     374:	0e 94 45 02 	call	0x48a	; 0x48a <vListInitialise>
     378:	02 e9       	ldi	r16, 0x92	; 146
     37a:	10 e0       	ldi	r17, 0x00	; 0
     37c:	c8 01       	movw	r24, r16
     37e:	0e 94 45 02 	call	0x48a	; 0x48a <vListInitialise>
     382:	8f e9       	ldi	r24, 0x9F	; 159
     384:	90 e0       	ldi	r25, 0x00	; 0
     386:	0e 94 45 02 	call	0x48a	; 0x48a <vListInitialise>
     38a:	f0 92 9c 00 	sts	0x009C, r15
     38e:	e0 92 9b 00 	sts	0x009B, r14
     392:	10 93 9e 00 	sts	0x009E, r17
     396:	00 93 9d 00 	sts	0x009D, r16
     39a:	eb 2c       	mov	r14, r11
     39c:	bb 20       	and	r11, r11
     39e:	11 f0       	breq	.+4      	; 0x3a4 <xCoRoutineCreate+0x8a>
     3a0:	ee 24       	eor	r14, r14
     3a2:	e3 94       	inc	r14
     3a4:	19 8e       	std	Y+25, r1	; 0x19
     3a6:	18 8e       	std	Y+24, r1	; 0x18
     3a8:	ee 8a       	std	Y+22, r14	; 0x16
     3aa:	af 8a       	std	Y+23, r10	; 0x17
     3ac:	fe 01       	movw	r30, r28
     3ae:	c1 92       	st	Z+, r12
     3b0:	d1 92       	st	Z+, r13
     3b2:	8f 01       	movw	r16, r30
     3b4:	cf 01       	movw	r24, r30
     3b6:	0e 94 55 02 	call	0x4aa	; 0x4aa <vListInitialiseItem>
     3ba:	ce 01       	movw	r24, r28
     3bc:	0c 96       	adiw	r24, 0x0c	; 12
     3be:	0e 94 55 02 	call	0x4aa	; 0x4aa <vListInitialiseItem>
     3c2:	d9 87       	std	Y+9, r29	; 0x09
     3c4:	c8 87       	std	Y+8, r28	; 0x08
     3c6:	db 8b       	std	Y+19, r29	; 0x13
     3c8:	ca 8b       	std	Y+18, r28	; 0x12
     3ca:	83 e0       	ldi	r24, 0x03	; 3
     3cc:	90 e0       	ldi	r25, 0x00	; 0
     3ce:	8e 19       	sub	r24, r14
     3d0:	91 09       	sbc	r25, r1
     3d2:	9d 87       	std	Y+13, r25	; 0x0d
     3d4:	8c 87       	std	Y+12, r24	; 0x0c
     3d6:	9e 89       	ldd	r25, Y+22	; 0x16
     3d8:	80 91 70 00 	lds	r24, 0x0070
     3dc:	89 17       	cp	r24, r25
     3de:	10 f4       	brcc	.+4      	; 0x3e4 <xCoRoutineCreate+0xca>
     3e0:	90 93 70 00 	sts	0x0070, r25
     3e4:	89 e0       	ldi	r24, 0x09	; 9
     3e6:	98 9f       	mul	r25, r24
     3e8:	c0 01       	movw	r24, r0
     3ea:	11 24       	eor	r1, r1
     3ec:	89 58       	subi	r24, 0x89	; 137
     3ee:	9f 4f       	sbci	r25, 0xFF	; 255
     3f0:	b8 01       	movw	r22, r16
     3f2:	0e 94 59 02 	call	0x4b2	; 0x4b2 <vListInsertEnd>
     3f6:	81 e0       	ldi	r24, 0x01	; 1
     3f8:	df 91       	pop	r29
     3fa:	cf 91       	pop	r28
     3fc:	1f 91       	pop	r17
     3fe:	0f 91       	pop	r16
     400:	ff 90       	pop	r15
     402:	ef 90       	pop	r14
     404:	df 90       	pop	r13
     406:	cf 90       	pop	r12
     408:	bf 90       	pop	r11
     40a:	af 90       	pop	r10
     40c:	08 95       	ret

0000040e <vPortFree>:
     40e:	08 95       	ret

00000410 <vPortInitialiseBlocks>:
     410:	10 92 a9 00 	sts	0x00A9, r1
     414:	10 92 a8 00 	sts	0x00A8, r1
     418:	08 95       	ret

0000041a <xPortGetFreeHeapSize>:
     41a:	28 e5       	ldi	r18, 0x58	; 88
     41c:	32 e0       	ldi	r19, 0x02	; 2
     41e:	80 91 a8 00 	lds	r24, 0x00A8
     422:	90 91 a9 00 	lds	r25, 0x00A9
     426:	28 1b       	sub	r18, r24
     428:	39 0b       	sbc	r19, r25
     42a:	c9 01       	movw	r24, r18
     42c:	08 95       	ret

0000042e <pvPortMalloc>:
     42e:	0f 93       	push	r16
     430:	1f 93       	push	r17
     432:	cf 93       	push	r28
     434:	df 93       	push	r29
     436:	8c 01       	movw	r16, r24
     438:	0e 94 2a 08 	call	0x1054	; 0x1054 <vTaskSuspendAll>
     43c:	80 91 a8 00 	lds	r24, 0x00A8
     440:	90 91 a9 00 	lds	r25, 0x00A9
     444:	98 01       	movw	r18, r16
     446:	28 0f       	add	r18, r24
     448:	39 1f       	adc	r19, r25
     44a:	42 e0       	ldi	r20, 0x02	; 2
     44c:	28 35       	cpi	r18, 0x58	; 88
     44e:	34 07       	cpc	r19, r20
     450:	58 f4       	brcc	.+22     	; 0x468 <pvPortMalloc+0x3a>
     452:	82 17       	cp	r24, r18
     454:	93 07       	cpc	r25, r19
     456:	40 f4       	brcc	.+16     	; 0x468 <pvPortMalloc+0x3a>
     458:	ec 01       	movw	r28, r24
     45a:	c6 55       	subi	r28, 0x56	; 86
     45c:	df 4f       	sbci	r29, 0xFF	; 255
     45e:	30 93 a9 00 	sts	0x00A9, r19
     462:	20 93 a8 00 	sts	0x00A8, r18
     466:	02 c0       	rjmp	.+4      	; 0x46c <pvPortMalloc+0x3e>
     468:	c0 e0       	ldi	r28, 0x00	; 0
     46a:	d0 e0       	ldi	r29, 0x00	; 0
     46c:	0e 94 83 0a 	call	0x1506	; 0x1506 <xTaskResumeAll>
     470:	ce 01       	movw	r24, r28
     472:	df 91       	pop	r29
     474:	cf 91       	pop	r28
     476:	1f 91       	pop	r17
     478:	0f 91       	pop	r16
     47a:	08 95       	ret

0000047c <Init_External_Interrupt>:
     47c:	a0 9a       	sbi	0x14, 0	; 20
     47e:	8a 98       	cbi	0x11, 2	; 17
     480:	92 9a       	sbi	0x12, 2	; 18
     482:	80 e4       	ldi	r24, 0x40	; 64
     484:	8b bf       	out	0x3b, r24	; 59
     486:	78 94       	sei
     488:	08 95       	ret

0000048a <vListInitialise>:
     48a:	fc 01       	movw	r30, r24
     48c:	9c 01       	movw	r18, r24
     48e:	2d 5f       	subi	r18, 0xFD	; 253
     490:	3f 4f       	sbci	r19, 0xFF	; 255
     492:	32 83       	std	Z+2, r19	; 0x02
     494:	21 83       	std	Z+1, r18	; 0x01
     496:	8f ef       	ldi	r24, 0xFF	; 255
     498:	9f ef       	ldi	r25, 0xFF	; 255
     49a:	94 83       	std	Z+4, r25	; 0x04
     49c:	83 83       	std	Z+3, r24	; 0x03
     49e:	36 83       	std	Z+6, r19	; 0x06
     4a0:	25 83       	std	Z+5, r18	; 0x05
     4a2:	30 87       	std	Z+8, r19	; 0x08
     4a4:	27 83       	std	Z+7, r18	; 0x07
     4a6:	10 82       	st	Z, r1
     4a8:	08 95       	ret

000004aa <vListInitialiseItem>:
     4aa:	fc 01       	movw	r30, r24
     4ac:	11 86       	std	Z+9, r1	; 0x09
     4ae:	10 86       	std	Z+8, r1	; 0x08
     4b0:	08 95       	ret

000004b2 <vListInsertEnd>:
     4b2:	cf 93       	push	r28
     4b4:	df 93       	push	r29
     4b6:	ac 01       	movw	r20, r24
     4b8:	db 01       	movw	r26, r22
     4ba:	ec 01       	movw	r28, r24
     4bc:	29 81       	ldd	r18, Y+1	; 0x01
     4be:	3a 81       	ldd	r19, Y+2	; 0x02
     4c0:	f9 01       	movw	r30, r18
     4c2:	82 81       	ldd	r24, Z+2	; 0x02
     4c4:	93 81       	ldd	r25, Z+3	; 0x03
     4c6:	13 96       	adiw	r26, 0x03	; 3
     4c8:	9c 93       	st	X, r25
     4ca:	8e 93       	st	-X, r24
     4cc:	12 97       	sbiw	r26, 0x02	; 2
     4ce:	89 81       	ldd	r24, Y+1	; 0x01
     4d0:	9a 81       	ldd	r25, Y+2	; 0x02
     4d2:	15 96       	adiw	r26, 0x05	; 5
     4d4:	9c 93       	st	X, r25
     4d6:	8e 93       	st	-X, r24
     4d8:	14 97       	sbiw	r26, 0x04	; 4
     4da:	02 80       	ldd	r0, Z+2	; 0x02
     4dc:	f3 81       	ldd	r31, Z+3	; 0x03
     4de:	e0 2d       	mov	r30, r0
     4e0:	75 83       	std	Z+5, r23	; 0x05
     4e2:	64 83       	std	Z+4, r22	; 0x04
     4e4:	e9 01       	movw	r28, r18
     4e6:	7b 83       	std	Y+3, r23	; 0x03
     4e8:	6a 83       	std	Y+2, r22	; 0x02
     4ea:	fa 01       	movw	r30, r20
     4ec:	72 83       	std	Z+2, r23	; 0x02
     4ee:	61 83       	std	Z+1, r22	; 0x01
     4f0:	19 96       	adiw	r26, 0x09	; 9
     4f2:	5c 93       	st	X, r21
     4f4:	4e 93       	st	-X, r20
     4f6:	18 97       	sbiw	r26, 0x08	; 8
     4f8:	80 81       	ld	r24, Z
     4fa:	8f 5f       	subi	r24, 0xFF	; 255
     4fc:	80 83       	st	Z, r24
     4fe:	df 91       	pop	r29
     500:	cf 91       	pop	r28
     502:	08 95       	ret

00000504 <vListInsert>:
     504:	cf 93       	push	r28
     506:	df 93       	push	r29
     508:	9c 01       	movw	r18, r24
     50a:	eb 01       	movw	r28, r22
     50c:	48 81       	ld	r20, Y
     50e:	59 81       	ldd	r21, Y+1	; 0x01
     510:	8f ef       	ldi	r24, 0xFF	; 255
     512:	4f 3f       	cpi	r20, 0xFF	; 255
     514:	58 07       	cpc	r21, r24
     516:	21 f4       	brne	.+8      	; 0x520 <vListInsert+0x1c>
     518:	f9 01       	movw	r30, r18
     51a:	a7 81       	ldd	r26, Z+7	; 0x07
     51c:	b0 85       	ldd	r27, Z+8	; 0x08
     51e:	10 c0       	rjmp	.+32     	; 0x540 <vListInsert+0x3c>
     520:	d9 01       	movw	r26, r18
     522:	13 96       	adiw	r26, 0x03	; 3
     524:	04 c0       	rjmp	.+8      	; 0x52e <vListInsert+0x2a>
     526:	12 96       	adiw	r26, 0x02	; 2
     528:	0d 90       	ld	r0, X+
     52a:	bc 91       	ld	r27, X
     52c:	a0 2d       	mov	r26, r0
     52e:	12 96       	adiw	r26, 0x02	; 2
     530:	ed 91       	ld	r30, X+
     532:	fc 91       	ld	r31, X
     534:	13 97       	sbiw	r26, 0x03	; 3
     536:	80 81       	ld	r24, Z
     538:	91 81       	ldd	r25, Z+1	; 0x01
     53a:	48 17       	cp	r20, r24
     53c:	59 07       	cpc	r21, r25
     53e:	98 f7       	brcc	.-26     	; 0x526 <vListInsert+0x22>
     540:	12 96       	adiw	r26, 0x02	; 2
     542:	ed 91       	ld	r30, X+
     544:	fc 91       	ld	r31, X
     546:	13 97       	sbiw	r26, 0x03	; 3
     548:	fb 83       	std	Y+3, r31	; 0x03
     54a:	ea 83       	std	Y+2, r30	; 0x02
     54c:	d5 83       	std	Z+5, r29	; 0x05
     54e:	c4 83       	std	Z+4, r28	; 0x04
     550:	bd 83       	std	Y+5, r27	; 0x05
     552:	ac 83       	std	Y+4, r26	; 0x04
     554:	13 96       	adiw	r26, 0x03	; 3
     556:	dc 93       	st	X, r29
     558:	ce 93       	st	-X, r28
     55a:	12 97       	sbiw	r26, 0x02	; 2
     55c:	39 87       	std	Y+9, r19	; 0x09
     55e:	28 87       	std	Y+8, r18	; 0x08
     560:	f9 01       	movw	r30, r18
     562:	80 81       	ld	r24, Z
     564:	8f 5f       	subi	r24, 0xFF	; 255
     566:	80 83       	st	Z, r24
     568:	df 91       	pop	r29
     56a:	cf 91       	pop	r28
     56c:	08 95       	ret

0000056e <vListRemove>:
     56e:	cf 93       	push	r28
     570:	df 93       	push	r29
     572:	dc 01       	movw	r26, r24
     574:	12 96       	adiw	r26, 0x02	; 2
     576:	ed 91       	ld	r30, X+
     578:	fc 91       	ld	r31, X
     57a:	13 97       	sbiw	r26, 0x03	; 3
     57c:	14 96       	adiw	r26, 0x04	; 4
     57e:	8d 91       	ld	r24, X+
     580:	9c 91       	ld	r25, X
     582:	15 97       	sbiw	r26, 0x05	; 5
     584:	95 83       	std	Z+5, r25	; 0x05
     586:	84 83       	std	Z+4, r24	; 0x04
     588:	14 96       	adiw	r26, 0x04	; 4
     58a:	cd 91       	ld	r28, X+
     58c:	dc 91       	ld	r29, X
     58e:	15 97       	sbiw	r26, 0x05	; 5
     590:	fb 83       	std	Y+3, r31	; 0x03
     592:	ea 83       	std	Y+2, r30	; 0x02
     594:	18 96       	adiw	r26, 0x08	; 8
     596:	ed 91       	ld	r30, X+
     598:	fc 91       	ld	r31, X
     59a:	19 97       	sbiw	r26, 0x09	; 9
     59c:	81 81       	ldd	r24, Z+1	; 0x01
     59e:	92 81       	ldd	r25, Z+2	; 0x02
     5a0:	8a 17       	cp	r24, r26
     5a2:	9b 07       	cpc	r25, r27
     5a4:	11 f4       	brne	.+4      	; 0x5aa <vListRemove+0x3c>
     5a6:	d2 83       	std	Z+2, r29	; 0x02
     5a8:	c1 83       	std	Z+1, r28	; 0x01
     5aa:	19 96       	adiw	r26, 0x09	; 9
     5ac:	1c 92       	st	X, r1
     5ae:	1e 92       	st	-X, r1
     5b0:	18 97       	sbiw	r26, 0x08	; 8
     5b2:	80 81       	ld	r24, Z
     5b4:	81 50       	subi	r24, 0x01	; 1
     5b6:	80 83       	st	Z, r24
     5b8:	df 91       	pop	r29
     5ba:	cf 91       	pop	r28
     5bc:	08 95       	ret

000005be <__vector_1>:
     5be:	1f 92       	push	r1
     5c0:	0f 92       	push	r0
     5c2:	0f b6       	in	r0, 0x3f	; 63
     5c4:	0f 92       	push	r0
     5c6:	11 24       	eor	r1, r1
     5c8:	2f 93       	push	r18
     5ca:	3f 93       	push	r19
     5cc:	4f 93       	push	r20
     5ce:	5f 93       	push	r21
     5d0:	6f 93       	push	r22
     5d2:	7f 93       	push	r23
     5d4:	8f 93       	push	r24
     5d6:	9f 93       	push	r25
     5d8:	af 93       	push	r26
     5da:	bf 93       	push	r27
     5dc:	ef 93       	push	r30
     5de:	ff 93       	push	r31
     5e0:	df 93       	push	r29
     5e2:	cf 93       	push	r28
     5e4:	0f 92       	push	r0
     5e6:	cd b7       	in	r28, 0x3d	; 61
     5e8:	de b7       	in	r29, 0x3e	; 62
     5ea:	80 91 53 03 	lds	r24, 0x0353
     5ee:	90 91 54 03 	lds	r25, 0x0354
     5f2:	60 e0       	ldi	r22, 0x00	; 0
     5f4:	70 e0       	ldi	r23, 0x00	; 0
     5f6:	ae 01       	movw	r20, r28
     5f8:	4f 5f       	subi	r20, 0xFF	; 255
     5fa:	5f 4f       	sbci	r21, 0xFF	; 255
     5fc:	20 e0       	ldi	r18, 0x00	; 0
     5fe:	0e 94 a4 06 	call	0xd48	; 0xd48 <xQueueGenericSendFromISR>
     602:	0f 90       	pop	r0
     604:	cf 91       	pop	r28
     606:	df 91       	pop	r29
     608:	ff 91       	pop	r31
     60a:	ef 91       	pop	r30
     60c:	bf 91       	pop	r27
     60e:	af 91       	pop	r26
     610:	9f 91       	pop	r25
     612:	8f 91       	pop	r24
     614:	7f 91       	pop	r23
     616:	6f 91       	pop	r22
     618:	5f 91       	pop	r21
     61a:	4f 91       	pop	r20
     61c:	3f 91       	pop	r19
     61e:	2f 91       	pop	r18
     620:	0f 90       	pop	r0
     622:	0f be       	out	0x3f, r0	; 63
     624:	0f 90       	pop	r0
     626:	1f 90       	pop	r1
     628:	18 95       	reti

0000062a <main>:
     62a:	af 92       	push	r10
     62c:	bf 92       	push	r11
     62e:	cf 92       	push	r12
     630:	df 92       	push	r13
     632:	ef 92       	push	r14
     634:	ff 92       	push	r15
     636:	0f 93       	push	r16
     638:	0e 94 3e 02 	call	0x47c	; 0x47c <Init_External_Interrupt>
     63c:	81 e0       	ldi	r24, 0x01	; 1
     63e:	60 e0       	ldi	r22, 0x00	; 0
     640:	0e 94 bf 07 	call	0xf7e	; 0xf7e <xQueueCreate>
     644:	90 93 54 03 	sts	0x0354, r25
     648:	80 93 53 03 	sts	0x0353, r24
     64c:	00 97       	sbiw	r24, 0x00	; 0
     64e:	39 f0       	breq	.+14     	; 0x65e <main+0x34>
     650:	60 e0       	ldi	r22, 0x00	; 0
     652:	70 e0       	ldi	r23, 0x00	; 0
     654:	40 e0       	ldi	r20, 0x00	; 0
     656:	50 e0       	ldi	r21, 0x00	; 0
     658:	20 e0       	ldi	r18, 0x00	; 0
     65a:	0e 94 cc 06 	call	0xd98	; 0xd98 <xQueueGenericSend>
     65e:	8c e4       	ldi	r24, 0x4C	; 76
     660:	93 e0       	ldi	r25, 0x03	; 3
     662:	60 e6       	ldi	r22, 0x60	; 96
     664:	70 e0       	ldi	r23, 0x00	; 0
     666:	45 e5       	ldi	r20, 0x55	; 85
     668:	50 e0       	ldi	r21, 0x00	; 0
     66a:	20 e0       	ldi	r18, 0x00	; 0
     66c:	30 e0       	ldi	r19, 0x00	; 0
     66e:	01 e0       	ldi	r16, 0x01	; 1
     670:	ee 24       	eor	r14, r14
     672:	ff 24       	eor	r15, r15
     674:	cc 24       	eor	r12, r12
     676:	dd 24       	eor	r13, r13
     678:	aa 24       	eor	r10, r10
     67a:	bb 24       	eor	r11, r11
     67c:	0e 94 e7 0b 	call	0x17ce	; 0x17ce <xTaskGenericCreate>
     680:	0e 94 08 0d 	call	0x1a10	; 0x1a10 <vTaskStartScheduler>
     684:	80 e0       	ldi	r24, 0x00	; 0
     686:	90 e0       	ldi	r25, 0x00	; 0
     688:	0f 91       	pop	r16
     68a:	ff 90       	pop	r15
     68c:	ef 90       	pop	r14
     68e:	df 90       	pop	r13
     690:	cf 90       	pop	r12
     692:	bf 90       	pop	r11
     694:	af 90       	pop	r10
     696:	08 95       	ret

00000698 <led_blink>:
     698:	1f 93       	push	r17
     69a:	80 91 53 03 	lds	r24, 0x0353
     69e:	90 91 54 03 	lds	r25, 0x0354
     6a2:	60 e0       	ldi	r22, 0x00	; 0
     6a4:	70 e0       	ldi	r23, 0x00	; 0
     6a6:	4f ef       	ldi	r20, 0xFF	; 255
     6a8:	5f ef       	ldi	r21, 0xFF	; 255
     6aa:	20 e0       	ldi	r18, 0x00	; 0
     6ac:	0e 94 46 05 	call	0xa8c	; 0xa8c <xQueueGenericReceive>
     6b0:	11 e0       	ldi	r17, 0x01	; 1
     6b2:	80 91 53 03 	lds	r24, 0x0353
     6b6:	90 91 54 03 	lds	r25, 0x0354
     6ba:	60 e0       	ldi	r22, 0x00	; 0
     6bc:	70 e0       	ldi	r23, 0x00	; 0
     6be:	4f ef       	ldi	r20, 0xFF	; 255
     6c0:	5f ef       	ldi	r21, 0xFF	; 255
     6c2:	20 e0       	ldi	r18, 0x00	; 0
     6c4:	0e 94 46 05 	call	0xa8c	; 0xa8c <xQueueGenericReceive>
     6c8:	85 b3       	in	r24, 0x15	; 21
     6ca:	81 27       	eor	r24, r17
     6cc:	85 bb       	out	0x15, r24	; 21
     6ce:	f1 cf       	rjmp	.-30     	; 0x6b2 <led_blink+0x1a>

000006d0 <pxPortInitialiseStack>:
     6d0:	fc 01       	movw	r30, r24
     6d2:	91 e1       	ldi	r25, 0x11	; 17
     6d4:	90 83       	st	Z, r25
     6d6:	22 e2       	ldi	r18, 0x22	; 34
     6d8:	22 93       	st	-Z, r18
     6da:	83 e3       	ldi	r24, 0x33	; 51
     6dc:	82 93       	st	-Z, r24
     6de:	62 93       	st	-Z, r22
     6e0:	72 93       	st	-Z, r23
     6e2:	12 92       	st	-Z, r1
     6e4:	80 e8       	ldi	r24, 0x80	; 128
     6e6:	82 93       	st	-Z, r24
     6e8:	12 92       	st	-Z, r1
     6ea:	82 e0       	ldi	r24, 0x02	; 2
     6ec:	82 93       	st	-Z, r24
     6ee:	83 e0       	ldi	r24, 0x03	; 3
     6f0:	82 93       	st	-Z, r24
     6f2:	84 e0       	ldi	r24, 0x04	; 4
     6f4:	82 93       	st	-Z, r24
     6f6:	85 e0       	ldi	r24, 0x05	; 5
     6f8:	82 93       	st	-Z, r24
     6fa:	86 e0       	ldi	r24, 0x06	; 6
     6fc:	82 93       	st	-Z, r24
     6fe:	87 e0       	ldi	r24, 0x07	; 7
     700:	82 93       	st	-Z, r24
     702:	88 e0       	ldi	r24, 0x08	; 8
     704:	82 93       	st	-Z, r24
     706:	89 e0       	ldi	r24, 0x09	; 9
     708:	82 93       	st	-Z, r24
     70a:	80 e1       	ldi	r24, 0x10	; 16
     70c:	82 93       	st	-Z, r24
     70e:	92 93       	st	-Z, r25
     710:	82 e1       	ldi	r24, 0x12	; 18
     712:	82 93       	st	-Z, r24
     714:	83 e1       	ldi	r24, 0x13	; 19
     716:	82 93       	st	-Z, r24
     718:	84 e1       	ldi	r24, 0x14	; 20
     71a:	82 93       	st	-Z, r24
     71c:	85 e1       	ldi	r24, 0x15	; 21
     71e:	82 93       	st	-Z, r24
     720:	86 e1       	ldi	r24, 0x16	; 22
     722:	82 93       	st	-Z, r24
     724:	87 e1       	ldi	r24, 0x17	; 23
     726:	82 93       	st	-Z, r24
     728:	88 e1       	ldi	r24, 0x18	; 24
     72a:	82 93       	st	-Z, r24
     72c:	89 e1       	ldi	r24, 0x19	; 25
     72e:	82 93       	st	-Z, r24
     730:	80 e2       	ldi	r24, 0x20	; 32
     732:	82 93       	st	-Z, r24
     734:	81 e2       	ldi	r24, 0x21	; 33
     736:	82 93       	st	-Z, r24
     738:	22 93       	st	-Z, r18
     73a:	83 e2       	ldi	r24, 0x23	; 35
     73c:	82 93       	st	-Z, r24
     73e:	42 93       	st	-Z, r20
     740:	52 93       	st	-Z, r21
     742:	86 e2       	ldi	r24, 0x26	; 38
     744:	82 93       	st	-Z, r24
     746:	87 e2       	ldi	r24, 0x27	; 39
     748:	82 93       	st	-Z, r24
     74a:	88 e2       	ldi	r24, 0x28	; 40
     74c:	82 93       	st	-Z, r24
     74e:	89 e2       	ldi	r24, 0x29	; 41
     750:	82 93       	st	-Z, r24
     752:	80 e3       	ldi	r24, 0x30	; 48
     754:	82 93       	st	-Z, r24
     756:	81 e3       	ldi	r24, 0x31	; 49
     758:	82 93       	st	-Z, r24
     75a:	31 97       	sbiw	r30, 0x01	; 1
     75c:	cf 01       	movw	r24, r30
     75e:	08 95       	ret

00000760 <xPortStartScheduler>:
     760:	1b bc       	out	0x2b, r1	; 43
     762:	8c e7       	ldi	r24, 0x7C	; 124
     764:	8a bd       	out	0x2a, r24	; 42
     766:	8b e0       	ldi	r24, 0x0B	; 11
     768:	8e bd       	out	0x2e, r24	; 46
     76a:	89 b7       	in	r24, 0x39	; 57
     76c:	80 61       	ori	r24, 0x10	; 16
     76e:	89 bf       	out	0x39, r24	; 57
     770:	a0 91 02 03 	lds	r26, 0x0302
     774:	b0 91 03 03 	lds	r27, 0x0303
     778:	cd 91       	ld	r28, X+
     77a:	cd bf       	out	0x3d, r28	; 61
     77c:	dd 91       	ld	r29, X+
     77e:	de bf       	out	0x3e, r29	; 62
     780:	ff 91       	pop	r31
     782:	ef 91       	pop	r30
     784:	df 91       	pop	r29
     786:	cf 91       	pop	r28
     788:	bf 91       	pop	r27
     78a:	af 91       	pop	r26
     78c:	9f 91       	pop	r25
     78e:	8f 91       	pop	r24
     790:	7f 91       	pop	r23
     792:	6f 91       	pop	r22
     794:	5f 91       	pop	r21
     796:	4f 91       	pop	r20
     798:	3f 91       	pop	r19
     79a:	2f 91       	pop	r18
     79c:	1f 91       	pop	r17
     79e:	0f 91       	pop	r16
     7a0:	ff 90       	pop	r15
     7a2:	ef 90       	pop	r14
     7a4:	df 90       	pop	r13
     7a6:	cf 90       	pop	r12
     7a8:	bf 90       	pop	r11
     7aa:	af 90       	pop	r10
     7ac:	9f 90       	pop	r9
     7ae:	8f 90       	pop	r8
     7b0:	7f 90       	pop	r7
     7b2:	6f 90       	pop	r6
     7b4:	5f 90       	pop	r5
     7b6:	4f 90       	pop	r4
     7b8:	3f 90       	pop	r3
     7ba:	2f 90       	pop	r2
     7bc:	1f 90       	pop	r1
     7be:	0f 90       	pop	r0
     7c0:	0f be       	out	0x3f, r0	; 63
     7c2:	0f 90       	pop	r0
     7c4:	08 95       	ret
     7c6:	81 e0       	ldi	r24, 0x01	; 1
     7c8:	08 95       	ret

000007ca <vPortEndScheduler>:
     7ca:	08 95       	ret

000007cc <vPortYieldFromTick>:
     7cc:	0f 92       	push	r0
     7ce:	0f b6       	in	r0, 0x3f	; 63
     7d0:	f8 94       	cli
     7d2:	0f 92       	push	r0
     7d4:	1f 92       	push	r1
     7d6:	11 24       	eor	r1, r1
     7d8:	2f 92       	push	r2
     7da:	3f 92       	push	r3
     7dc:	4f 92       	push	r4
     7de:	5f 92       	push	r5
     7e0:	6f 92       	push	r6
     7e2:	7f 92       	push	r7
     7e4:	8f 92       	push	r8
     7e6:	9f 92       	push	r9
     7e8:	af 92       	push	r10
     7ea:	bf 92       	push	r11
     7ec:	cf 92       	push	r12
     7ee:	df 92       	push	r13
     7f0:	ef 92       	push	r14
     7f2:	ff 92       	push	r15
     7f4:	0f 93       	push	r16
     7f6:	1f 93       	push	r17
     7f8:	2f 93       	push	r18
     7fa:	3f 93       	push	r19
     7fc:	4f 93       	push	r20
     7fe:	5f 93       	push	r21
     800:	6f 93       	push	r22
     802:	7f 93       	push	r23
     804:	8f 93       	push	r24
     806:	9f 93       	push	r25
     808:	af 93       	push	r26
     80a:	bf 93       	push	r27
     80c:	cf 93       	push	r28
     80e:	df 93       	push	r29
     810:	ef 93       	push	r30
     812:	ff 93       	push	r31
     814:	a0 91 02 03 	lds	r26, 0x0302
     818:	b0 91 03 03 	lds	r27, 0x0303
     81c:	0d b6       	in	r0, 0x3d	; 61
     81e:	0d 92       	st	X+, r0
     820:	0e b6       	in	r0, 0x3e	; 62
     822:	0d 92       	st	X+, r0
     824:	0e 94 8b 09 	call	0x1316	; 0x1316 <vTaskIncrementTick>
     828:	0e 94 44 08 	call	0x1088	; 0x1088 <vTaskSwitchContext>
     82c:	a0 91 02 03 	lds	r26, 0x0302
     830:	b0 91 03 03 	lds	r27, 0x0303
     834:	cd 91       	ld	r28, X+
     836:	cd bf       	out	0x3d, r28	; 61
     838:	dd 91       	ld	r29, X+
     83a:	de bf       	out	0x3e, r29	; 62
     83c:	ff 91       	pop	r31
     83e:	ef 91       	pop	r30
     840:	df 91       	pop	r29
     842:	cf 91       	pop	r28
     844:	bf 91       	pop	r27
     846:	af 91       	pop	r26
     848:	9f 91       	pop	r25
     84a:	8f 91       	pop	r24
     84c:	7f 91       	pop	r23
     84e:	6f 91       	pop	r22
     850:	5f 91       	pop	r21
     852:	4f 91       	pop	r20
     854:	3f 91       	pop	r19
     856:	2f 91       	pop	r18
     858:	1f 91       	pop	r17
     85a:	0f 91       	pop	r16
     85c:	ff 90       	pop	r15
     85e:	ef 90       	pop	r14
     860:	df 90       	pop	r13
     862:	cf 90       	pop	r12
     864:	bf 90       	pop	r11
     866:	af 90       	pop	r10
     868:	9f 90       	pop	r9
     86a:	8f 90       	pop	r8
     86c:	7f 90       	pop	r7
     86e:	6f 90       	pop	r6
     870:	5f 90       	pop	r5
     872:	4f 90       	pop	r4
     874:	3f 90       	pop	r3
     876:	2f 90       	pop	r2
     878:	1f 90       	pop	r1
     87a:	0f 90       	pop	r0
     87c:	0f be       	out	0x3f, r0	; 63
     87e:	0f 90       	pop	r0
     880:	08 95       	ret

00000882 <__vector_7>:
     882:	0e 94 e6 03 	call	0x7cc	; 0x7cc <vPortYieldFromTick>
     886:	18 95       	reti

00000888 <vPortYield>:
     888:	0f 92       	push	r0
     88a:	0f b6       	in	r0, 0x3f	; 63
     88c:	f8 94       	cli
     88e:	0f 92       	push	r0
     890:	1f 92       	push	r1
     892:	11 24       	eor	r1, r1
     894:	2f 92       	push	r2
     896:	3f 92       	push	r3
     898:	4f 92       	push	r4
     89a:	5f 92       	push	r5
     89c:	6f 92       	push	r6
     89e:	7f 92       	push	r7
     8a0:	8f 92       	push	r8
     8a2:	9f 92       	push	r9
     8a4:	af 92       	push	r10
     8a6:	bf 92       	push	r11
     8a8:	cf 92       	push	r12
     8aa:	df 92       	push	r13
     8ac:	ef 92       	push	r14
     8ae:	ff 92       	push	r15
     8b0:	0f 93       	push	r16
     8b2:	1f 93       	push	r17
     8b4:	2f 93       	push	r18
     8b6:	3f 93       	push	r19
     8b8:	4f 93       	push	r20
     8ba:	5f 93       	push	r21
     8bc:	6f 93       	push	r22
     8be:	7f 93       	push	r23
     8c0:	8f 93       	push	r24
     8c2:	9f 93       	push	r25
     8c4:	af 93       	push	r26
     8c6:	bf 93       	push	r27
     8c8:	cf 93       	push	r28
     8ca:	df 93       	push	r29
     8cc:	ef 93       	push	r30
     8ce:	ff 93       	push	r31
     8d0:	a0 91 02 03 	lds	r26, 0x0302
     8d4:	b0 91 03 03 	lds	r27, 0x0303
     8d8:	0d b6       	in	r0, 0x3d	; 61
     8da:	0d 92       	st	X+, r0
     8dc:	0e b6       	in	r0, 0x3e	; 62
     8de:	0d 92       	st	X+, r0
     8e0:	0e 94 44 08 	call	0x1088	; 0x1088 <vTaskSwitchContext>
     8e4:	a0 91 02 03 	lds	r26, 0x0302
     8e8:	b0 91 03 03 	lds	r27, 0x0303
     8ec:	cd 91       	ld	r28, X+
     8ee:	cd bf       	out	0x3d, r28	; 61
     8f0:	dd 91       	ld	r29, X+
     8f2:	de bf       	out	0x3e, r29	; 62
     8f4:	ff 91       	pop	r31
     8f6:	ef 91       	pop	r30
     8f8:	df 91       	pop	r29
     8fa:	cf 91       	pop	r28
     8fc:	bf 91       	pop	r27
     8fe:	af 91       	pop	r26
     900:	9f 91       	pop	r25
     902:	8f 91       	pop	r24
     904:	7f 91       	pop	r23
     906:	6f 91       	pop	r22
     908:	5f 91       	pop	r21
     90a:	4f 91       	pop	r20
     90c:	3f 91       	pop	r19
     90e:	2f 91       	pop	r18
     910:	1f 91       	pop	r17
     912:	0f 91       	pop	r16
     914:	ff 90       	pop	r15
     916:	ef 90       	pop	r14
     918:	df 90       	pop	r13
     91a:	cf 90       	pop	r12
     91c:	bf 90       	pop	r11
     91e:	af 90       	pop	r10
     920:	9f 90       	pop	r9
     922:	8f 90       	pop	r8
     924:	7f 90       	pop	r7
     926:	6f 90       	pop	r6
     928:	5f 90       	pop	r5
     92a:	4f 90       	pop	r4
     92c:	3f 90       	pop	r3
     92e:	2f 90       	pop	r2
     930:	1f 90       	pop	r1
     932:	0f 90       	pop	r0
     934:	0f be       	out	0x3f, r0	; 63
     936:	0f 90       	pop	r0
     938:	08 95       	ret

0000093a <uxQueueMessagesWaiting>:
     93a:	fc 01       	movw	r30, r24
     93c:	0f b6       	in	r0, 0x3f	; 63
     93e:	f8 94       	cli
     940:	0f 92       	push	r0
     942:	82 8d       	ldd	r24, Z+26	; 0x1a
     944:	0f 90       	pop	r0
     946:	0f be       	out	0x3f, r0	; 63
     948:	08 95       	ret

0000094a <uxQueueMessagesWaitingFromISR>:
     94a:	fc 01       	movw	r30, r24
     94c:	82 8d       	ldd	r24, Z+26	; 0x1a
     94e:	08 95       	ret

00000950 <xQueueIsQueueEmptyFromISR>:
     950:	fc 01       	movw	r30, r24
     952:	82 8d       	ldd	r24, Z+26	; 0x1a
     954:	90 e0       	ldi	r25, 0x00	; 0
     956:	88 23       	and	r24, r24
     958:	09 f4       	brne	.+2      	; 0x95c <xQueueIsQueueEmptyFromISR+0xc>
     95a:	91 e0       	ldi	r25, 0x01	; 1
     95c:	89 2f       	mov	r24, r25
     95e:	08 95       	ret

00000960 <xQueueIsQueueFullFromISR>:
     960:	fc 01       	movw	r30, r24
     962:	92 8d       	ldd	r25, Z+26	; 0x1a
     964:	20 e0       	ldi	r18, 0x00	; 0
     966:	83 8d       	ldd	r24, Z+27	; 0x1b
     968:	98 17       	cp	r25, r24
     96a:	09 f4       	brne	.+2      	; 0x96e <xQueueIsQueueFullFromISR+0xe>
     96c:	21 e0       	ldi	r18, 0x01	; 1
     96e:	82 2f       	mov	r24, r18
     970:	08 95       	ret

00000972 <vQueueDelete>:
     972:	0f 93       	push	r16
     974:	1f 93       	push	r17
     976:	8c 01       	movw	r16, r24
     978:	fc 01       	movw	r30, r24
     97a:	80 81       	ld	r24, Z
     97c:	91 81       	ldd	r25, Z+1	; 0x01
     97e:	0e 94 07 02 	call	0x40e	; 0x40e <vPortFree>
     982:	c8 01       	movw	r24, r16
     984:	0e 94 07 02 	call	0x40e	; 0x40e <vPortFree>
     988:	1f 91       	pop	r17
     98a:	0f 91       	pop	r16
     98c:	08 95       	ret

0000098e <xQueueReceiveFromISR>:
     98e:	0f 93       	push	r16
     990:	1f 93       	push	r17
     992:	cf 93       	push	r28
     994:	df 93       	push	r29
     996:	ec 01       	movw	r28, r24
     998:	fb 01       	movw	r30, r22
     99a:	8a 01       	movw	r16, r20
     99c:	8a 8d       	ldd	r24, Y+26	; 0x1a
     99e:	88 23       	and	r24, r24
     9a0:	81 f1       	breq	.+96     	; 0xa02 <xQueueReceiveFromISR+0x74>
     9a2:	48 81       	ld	r20, Y
     9a4:	59 81       	ldd	r21, Y+1	; 0x01
     9a6:	41 15       	cp	r20, r1
     9a8:	51 05       	cpc	r21, r1
     9aa:	a9 f0       	breq	.+42     	; 0x9d6 <xQueueReceiveFromISR+0x48>
     9ac:	8c 8d       	ldd	r24, Y+28	; 0x1c
     9ae:	2e 81       	ldd	r18, Y+6	; 0x06
     9b0:	3f 81       	ldd	r19, Y+7	; 0x07
     9b2:	28 0f       	add	r18, r24
     9b4:	31 1d       	adc	r19, r1
     9b6:	3f 83       	std	Y+7, r19	; 0x07
     9b8:	2e 83       	std	Y+6, r18	; 0x06
     9ba:	8a 81       	ldd	r24, Y+2	; 0x02
     9bc:	9b 81       	ldd	r25, Y+3	; 0x03
     9be:	28 17       	cp	r18, r24
     9c0:	39 07       	cpc	r19, r25
     9c2:	10 f0       	brcs	.+4      	; 0x9c8 <xQueueReceiveFromISR+0x3a>
     9c4:	5f 83       	std	Y+7, r21	; 0x07
     9c6:	4e 83       	std	Y+6, r20	; 0x06
     9c8:	4c 8d       	ldd	r20, Y+28	; 0x1c
     9ca:	6e 81       	ldd	r22, Y+6	; 0x06
     9cc:	7f 81       	ldd	r23, Y+7	; 0x07
     9ce:	cf 01       	movw	r24, r30
     9d0:	50 e0       	ldi	r21, 0x00	; 0
     9d2:	0e 94 52 0d 	call	0x1aa4	; 0x1aa4 <memcpy>
     9d6:	8a 8d       	ldd	r24, Y+26	; 0x1a
     9d8:	81 50       	subi	r24, 0x01	; 1
     9da:	8a 8f       	std	Y+26, r24	; 0x1a
     9dc:	8d 8d       	ldd	r24, Y+29	; 0x1d
     9de:	8f 3f       	cpi	r24, 0xFF	; 255
     9e0:	69 f4       	brne	.+26     	; 0x9fc <xQueueReceiveFromISR+0x6e>
     9e2:	88 85       	ldd	r24, Y+8	; 0x08
     9e4:	88 23       	and	r24, r24
     9e6:	61 f0       	breq	.+24     	; 0xa00 <xQueueReceiveFromISR+0x72>
     9e8:	ce 01       	movw	r24, r28
     9ea:	08 96       	adiw	r24, 0x08	; 8
     9ec:	0e 94 4c 09 	call	0x1298	; 0x1298 <xTaskRemoveFromEventList>
     9f0:	88 23       	and	r24, r24
     9f2:	31 f0       	breq	.+12     	; 0xa00 <xQueueReceiveFromISR+0x72>
     9f4:	81 e0       	ldi	r24, 0x01	; 1
     9f6:	f8 01       	movw	r30, r16
     9f8:	80 83       	st	Z, r24
     9fa:	03 c0       	rjmp	.+6      	; 0xa02 <xQueueReceiveFromISR+0x74>
     9fc:	8f 5f       	subi	r24, 0xFF	; 255
     9fe:	8d 8f       	std	Y+29, r24	; 0x1d
     a00:	81 e0       	ldi	r24, 0x01	; 1
     a02:	df 91       	pop	r29
     a04:	cf 91       	pop	r28
     a06:	1f 91       	pop	r17
     a08:	0f 91       	pop	r16
     a0a:	08 95       	ret

00000a0c <prvUnlockQueue>:
     a0c:	0f 93       	push	r16
     a0e:	1f 93       	push	r17
     a10:	cf 93       	push	r28
     a12:	df 93       	push	r29
     a14:	ec 01       	movw	r28, r24
     a16:	0f b6       	in	r0, 0x3f	; 63
     a18:	f8 94       	cli
     a1a:	0f 92       	push	r0
     a1c:	8c 01       	movw	r16, r24
     a1e:	0f 5e       	subi	r16, 0xEF	; 239
     a20:	1f 4f       	sbci	r17, 0xFF	; 255
     a22:	0d c0       	rjmp	.+26     	; 0xa3e <prvUnlockQueue+0x32>
     a24:	89 89       	ldd	r24, Y+17	; 0x11
     a26:	88 23       	and	r24, r24
     a28:	69 f0       	breq	.+26     	; 0xa44 <prvUnlockQueue+0x38>
     a2a:	c8 01       	movw	r24, r16
     a2c:	0e 94 4c 09 	call	0x1298	; 0x1298 <xTaskRemoveFromEventList>
     a30:	88 23       	and	r24, r24
     a32:	11 f0       	breq	.+4      	; 0xa38 <prvUnlockQueue+0x2c>
     a34:	0e 94 cb 08 	call	0x1196	; 0x1196 <vTaskMissedYield>
     a38:	8e 8d       	ldd	r24, Y+30	; 0x1e
     a3a:	81 50       	subi	r24, 0x01	; 1
     a3c:	8e 8f       	std	Y+30, r24	; 0x1e
     a3e:	8e 8d       	ldd	r24, Y+30	; 0x1e
     a40:	18 16       	cp	r1, r24
     a42:	84 f3       	brlt	.-32     	; 0xa24 <prvUnlockQueue+0x18>
     a44:	8f ef       	ldi	r24, 0xFF	; 255
     a46:	8e 8f       	std	Y+30, r24	; 0x1e
     a48:	0f 90       	pop	r0
     a4a:	0f be       	out	0x3f, r0	; 63
     a4c:	0f b6       	in	r0, 0x3f	; 63
     a4e:	f8 94       	cli
     a50:	0f 92       	push	r0
     a52:	8e 01       	movw	r16, r28
     a54:	08 5f       	subi	r16, 0xF8	; 248
     a56:	1f 4f       	sbci	r17, 0xFF	; 255
     a58:	0d c0       	rjmp	.+26     	; 0xa74 <prvUnlockQueue+0x68>
     a5a:	88 85       	ldd	r24, Y+8	; 0x08
     a5c:	88 23       	and	r24, r24
     a5e:	69 f0       	breq	.+26     	; 0xa7a <prvUnlockQueue+0x6e>
     a60:	c8 01       	movw	r24, r16
     a62:	0e 94 4c 09 	call	0x1298	; 0x1298 <xTaskRemoveFromEventList>
     a66:	88 23       	and	r24, r24
     a68:	11 f0       	breq	.+4      	; 0xa6e <prvUnlockQueue+0x62>
     a6a:	0e 94 cb 08 	call	0x1196	; 0x1196 <vTaskMissedYield>
     a6e:	8d 8d       	ldd	r24, Y+29	; 0x1d
     a70:	81 50       	subi	r24, 0x01	; 1
     a72:	8d 8f       	std	Y+29, r24	; 0x1d
     a74:	8d 8d       	ldd	r24, Y+29	; 0x1d
     a76:	18 16       	cp	r1, r24
     a78:	84 f3       	brlt	.-32     	; 0xa5a <prvUnlockQueue+0x4e>
     a7a:	8f ef       	ldi	r24, 0xFF	; 255
     a7c:	8d 8f       	std	Y+29, r24	; 0x1d
     a7e:	0f 90       	pop	r0
     a80:	0f be       	out	0x3f, r0	; 63
     a82:	df 91       	pop	r29
     a84:	cf 91       	pop	r28
     a86:	1f 91       	pop	r17
     a88:	0f 91       	pop	r16
     a8a:	08 95       	ret

00000a8c <xQueueGenericReceive>:
     a8c:	7f 92       	push	r7
     a8e:	8f 92       	push	r8
     a90:	9f 92       	push	r9
     a92:	af 92       	push	r10
     a94:	bf 92       	push	r11
     a96:	cf 92       	push	r12
     a98:	df 92       	push	r13
     a9a:	ef 92       	push	r14
     a9c:	ff 92       	push	r15
     a9e:	0f 93       	push	r16
     aa0:	1f 93       	push	r17
     aa2:	df 93       	push	r29
     aa4:	cf 93       	push	r28
     aa6:	00 d0       	rcall	.+0      	; 0xaa8 <xQueueGenericReceive+0x1c>
     aa8:	00 d0       	rcall	.+0      	; 0xaaa <xQueueGenericReceive+0x1e>
     aaa:	0f 92       	push	r0
     aac:	cd b7       	in	r28, 0x3d	; 61
     aae:	de b7       	in	r29, 0x3e	; 62
     ab0:	8c 01       	movw	r16, r24
     ab2:	96 2e       	mov	r9, r22
     ab4:	87 2e       	mov	r8, r23
     ab6:	5d 83       	std	Y+5, r21	; 0x05
     ab8:	4c 83       	std	Y+4, r20	; 0x04
     aba:	72 2e       	mov	r7, r18
     abc:	91 e1       	ldi	r25, 0x11	; 17
     abe:	c9 2e       	mov	r12, r25
     ac0:	d1 2c       	mov	r13, r1
     ac2:	c0 0e       	add	r12, r16
     ac4:	d1 1e       	adc	r13, r17
     ac6:	20 e0       	ldi	r18, 0x00	; 0
     ac8:	7e 01       	movw	r14, r28
     aca:	08 94       	sec
     acc:	e1 1c       	adc	r14, r1
     ace:	f1 1c       	adc	r15, r1
     ad0:	84 e0       	ldi	r24, 0x04	; 4
     ad2:	a8 2e       	mov	r10, r24
     ad4:	b1 2c       	mov	r11, r1
     ad6:	ac 0e       	add	r10, r28
     ad8:	bd 1e       	adc	r11, r29
     ada:	01 c0       	rjmp	.+2      	; 0xade <xQueueGenericReceive+0x52>
     adc:	21 e0       	ldi	r18, 0x01	; 1
     ade:	0f b6       	in	r0, 0x3f	; 63
     ae0:	f8 94       	cli
     ae2:	0f 92       	push	r0
     ae4:	f8 01       	movw	r30, r16
     ae6:	82 8d       	ldd	r24, Z+26	; 0x1a
     ae8:	88 23       	and	r24, r24
     aea:	09 f4       	brne	.+2      	; 0xaee <xQueueGenericReceive+0x62>
     aec:	48 c0       	rjmp	.+144    	; 0xb7e <xQueueGenericReceive+0xf2>
     aee:	e6 80       	ldd	r14, Z+6	; 0x06
     af0:	f7 80       	ldd	r15, Z+7	; 0x07
     af2:	40 81       	ld	r20, Z
     af4:	51 81       	ldd	r21, Z+1	; 0x01
     af6:	41 15       	cp	r20, r1
     af8:	51 05       	cpc	r21, r1
     afa:	b1 f0       	breq	.+44     	; 0xb28 <xQueueGenericReceive+0x9c>
     afc:	84 8d       	ldd	r24, Z+28	; 0x1c
     afe:	97 01       	movw	r18, r14
     b00:	28 0f       	add	r18, r24
     b02:	31 1d       	adc	r19, r1
     b04:	37 83       	std	Z+7, r19	; 0x07
     b06:	26 83       	std	Z+6, r18	; 0x06
     b08:	82 81       	ldd	r24, Z+2	; 0x02
     b0a:	93 81       	ldd	r25, Z+3	; 0x03
     b0c:	28 17       	cp	r18, r24
     b0e:	39 07       	cpc	r19, r25
     b10:	10 f0       	brcs	.+4      	; 0xb16 <xQueueGenericReceive+0x8a>
     b12:	57 83       	std	Z+7, r21	; 0x07
     b14:	46 83       	std	Z+6, r20	; 0x06
     b16:	f8 01       	movw	r30, r16
     b18:	44 8d       	ldd	r20, Z+28	; 0x1c
     b1a:	66 81       	ldd	r22, Z+6	; 0x06
     b1c:	77 81       	ldd	r23, Z+7	; 0x07
     b1e:	89 2d       	mov	r24, r9
     b20:	98 2d       	mov	r25, r8
     b22:	50 e0       	ldi	r21, 0x00	; 0
     b24:	0e 94 52 0d 	call	0x1aa4	; 0x1aa4 <memcpy>
     b28:	77 20       	and	r7, r7
     b2a:	c1 f4       	brne	.+48     	; 0xb5c <xQueueGenericReceive+0xd0>
     b2c:	f8 01       	movw	r30, r16
     b2e:	82 8d       	ldd	r24, Z+26	; 0x1a
     b30:	81 50       	subi	r24, 0x01	; 1
     b32:	82 8f       	std	Z+26, r24	; 0x1a
     b34:	80 81       	ld	r24, Z
     b36:	91 81       	ldd	r25, Z+1	; 0x01
     b38:	89 2b       	or	r24, r25
     b3a:	29 f4       	brne	.+10     	; 0xb46 <xQueueGenericReceive+0xba>
     b3c:	0e 94 cf 08 	call	0x119e	; 0x119e <xTaskGetCurrentTaskHandle>
     b40:	f8 01       	movw	r30, r16
     b42:	93 83       	std	Z+3, r25	; 0x03
     b44:	82 83       	std	Z+2, r24	; 0x02
     b46:	f8 01       	movw	r30, r16
     b48:	80 85       	ldd	r24, Z+8	; 0x08
     b4a:	88 23       	and	r24, r24
     b4c:	a1 f0       	breq	.+40     	; 0xb76 <xQueueGenericReceive+0xea>
     b4e:	c8 01       	movw	r24, r16
     b50:	08 96       	adiw	r24, 0x08	; 8
     b52:	0e 94 4c 09 	call	0x1298	; 0x1298 <xTaskRemoveFromEventList>
     b56:	81 30       	cpi	r24, 0x01	; 1
     b58:	71 f4       	brne	.+28     	; 0xb76 <xQueueGenericReceive+0xea>
     b5a:	0b c0       	rjmp	.+22     	; 0xb72 <xQueueGenericReceive+0xe6>
     b5c:	f8 01       	movw	r30, r16
     b5e:	f7 82       	std	Z+7, r15	; 0x07
     b60:	e6 82       	std	Z+6, r14	; 0x06
     b62:	81 89       	ldd	r24, Z+17	; 0x11
     b64:	88 23       	and	r24, r24
     b66:	39 f0       	breq	.+14     	; 0xb76 <xQueueGenericReceive+0xea>
     b68:	c6 01       	movw	r24, r12
     b6a:	0e 94 4c 09 	call	0x1298	; 0x1298 <xTaskRemoveFromEventList>
     b6e:	88 23       	and	r24, r24
     b70:	11 f0       	breq	.+4      	; 0xb76 <xQueueGenericReceive+0xea>
     b72:	0e 94 44 04 	call	0x888	; 0x888 <vPortYield>
     b76:	0f 90       	pop	r0
     b78:	0f be       	out	0x3f, r0	; 63
     b7a:	81 e0       	ldi	r24, 0x01	; 1
     b7c:	59 c0       	rjmp	.+178    	; 0xc30 <xQueueGenericReceive+0x1a4>
     b7e:	8c 81       	ldd	r24, Y+4	; 0x04
     b80:	9d 81       	ldd	r25, Y+5	; 0x05
     b82:	89 2b       	or	r24, r25
     b84:	19 f4       	brne	.+6      	; 0xb8c <xQueueGenericReceive+0x100>
     b86:	0f 90       	pop	r0
     b88:	0f be       	out	0x3f, r0	; 63
     b8a:	51 c0       	rjmp	.+162    	; 0xc2e <xQueueGenericReceive+0x1a2>
     b8c:	22 23       	and	r18, r18
     b8e:	19 f4       	brne	.+6      	; 0xb96 <xQueueGenericReceive+0x10a>
     b90:	c7 01       	movw	r24, r14
     b92:	0e 94 86 08 	call	0x110c	; 0x110c <vTaskSetTimeOutState>
     b96:	0f 90       	pop	r0
     b98:	0f be       	out	0x3f, r0	; 63
     b9a:	0e 94 2a 08 	call	0x1054	; 0x1054 <vTaskSuspendAll>
     b9e:	0f b6       	in	r0, 0x3f	; 63
     ba0:	f8 94       	cli
     ba2:	0f 92       	push	r0
     ba4:	f8 01       	movw	r30, r16
     ba6:	85 8d       	ldd	r24, Z+29	; 0x1d
     ba8:	8f 3f       	cpi	r24, 0xFF	; 255
     baa:	09 f4       	brne	.+2      	; 0xbae <xQueueGenericReceive+0x122>
     bac:	15 8e       	std	Z+29, r1	; 0x1d
     bae:	f8 01       	movw	r30, r16
     bb0:	86 8d       	ldd	r24, Z+30	; 0x1e
     bb2:	8f 3f       	cpi	r24, 0xFF	; 255
     bb4:	09 f4       	brne	.+2      	; 0xbb8 <xQueueGenericReceive+0x12c>
     bb6:	16 8e       	std	Z+30, r1	; 0x1e
     bb8:	0f 90       	pop	r0
     bba:	0f be       	out	0x3f, r0	; 63
     bbc:	c7 01       	movw	r24, r14
     bbe:	b5 01       	movw	r22, r10
     bc0:	0e 94 91 08 	call	0x1122	; 0x1122 <xTaskCheckForTimeOut>
     bc4:	88 23       	and	r24, r24
     bc6:	71 f5       	brne	.+92     	; 0xc24 <xQueueGenericReceive+0x198>
     bc8:	0f b6       	in	r0, 0x3f	; 63
     bca:	f8 94       	cli
     bcc:	0f 92       	push	r0
     bce:	f8 01       	movw	r30, r16
     bd0:	82 8d       	ldd	r24, Z+26	; 0x1a
     bd2:	0f 90       	pop	r0
     bd4:	0f be       	out	0x3f, r0	; 63
     bd6:	88 23       	and	r24, r24
     bd8:	f9 f4       	brne	.+62     	; 0xc18 <xQueueGenericReceive+0x18c>
     bda:	f8 01       	movw	r30, r16
     bdc:	80 81       	ld	r24, Z
     bde:	91 81       	ldd	r25, Z+1	; 0x01
     be0:	89 2b       	or	r24, r25
     be2:	51 f4       	brne	.+20     	; 0xbf8 <xQueueGenericReceive+0x16c>
     be4:	0f b6       	in	r0, 0x3f	; 63
     be6:	f8 94       	cli
     be8:	0f 92       	push	r0
     bea:	f8 01       	movw	r30, r16
     bec:	82 81       	ldd	r24, Z+2	; 0x02
     bee:	93 81       	ldd	r25, Z+3	; 0x03
     bf0:	0e 94 02 09 	call	0x1204	; 0x1204 <vTaskPriorityInherit>
     bf4:	0f 90       	pop	r0
     bf6:	0f be       	out	0x3f, r0	; 63
     bf8:	6c 81       	ldd	r22, Y+4	; 0x04
     bfa:	7d 81       	ldd	r23, Y+5	; 0x05
     bfc:	c6 01       	movw	r24, r12
     bfe:	0e 94 66 0a 	call	0x14cc	; 0x14cc <vTaskPlaceOnEventList>
     c02:	c8 01       	movw	r24, r16
     c04:	0e 94 06 05 	call	0xa0c	; 0xa0c <prvUnlockQueue>
     c08:	0e 94 83 0a 	call	0x1506	; 0x1506 <xTaskResumeAll>
     c0c:	88 23       	and	r24, r24
     c0e:	09 f0       	breq	.+2      	; 0xc12 <xQueueGenericReceive+0x186>
     c10:	65 cf       	rjmp	.-310    	; 0xadc <xQueueGenericReceive+0x50>
     c12:	0e 94 44 04 	call	0x888	; 0x888 <vPortYield>
     c16:	62 cf       	rjmp	.-316    	; 0xadc <xQueueGenericReceive+0x50>
     c18:	c8 01       	movw	r24, r16
     c1a:	0e 94 06 05 	call	0xa0c	; 0xa0c <prvUnlockQueue>
     c1e:	0e 94 83 0a 	call	0x1506	; 0x1506 <xTaskResumeAll>
     c22:	5c cf       	rjmp	.-328    	; 0xadc <xQueueGenericReceive+0x50>
     c24:	c8 01       	movw	r24, r16
     c26:	0e 94 06 05 	call	0xa0c	; 0xa0c <prvUnlockQueue>
     c2a:	0e 94 83 0a 	call	0x1506	; 0x1506 <xTaskResumeAll>
     c2e:	80 e0       	ldi	r24, 0x00	; 0
     c30:	0f 90       	pop	r0
     c32:	0f 90       	pop	r0
     c34:	0f 90       	pop	r0
     c36:	0f 90       	pop	r0
     c38:	0f 90       	pop	r0
     c3a:	cf 91       	pop	r28
     c3c:	df 91       	pop	r29
     c3e:	1f 91       	pop	r17
     c40:	0f 91       	pop	r16
     c42:	ff 90       	pop	r15
     c44:	ef 90       	pop	r14
     c46:	df 90       	pop	r13
     c48:	cf 90       	pop	r12
     c4a:	bf 90       	pop	r11
     c4c:	af 90       	pop	r10
     c4e:	9f 90       	pop	r9
     c50:	8f 90       	pop	r8
     c52:	7f 90       	pop	r7
     c54:	08 95       	ret

00000c56 <xQueueTakeMutexRecursive>:
     c56:	ef 92       	push	r14
     c58:	ff 92       	push	r15
     c5a:	0f 93       	push	r16
     c5c:	1f 93       	push	r17
     c5e:	cf 93       	push	r28
     c60:	df 93       	push	r29
     c62:	ec 01       	movw	r28, r24
     c64:	7b 01       	movw	r14, r22
     c66:	0a 81       	ldd	r16, Y+2	; 0x02
     c68:	1b 81       	ldd	r17, Y+3	; 0x03
     c6a:	0e 94 cf 08 	call	0x119e	; 0x119e <xTaskGetCurrentTaskHandle>
     c6e:	08 17       	cp	r16, r24
     c70:	19 07       	cpc	r17, r25
     c72:	39 f4       	brne	.+14     	; 0xc82 <xQueueTakeMutexRecursive+0x2c>
     c74:	8e 81       	ldd	r24, Y+6	; 0x06
     c76:	9f 81       	ldd	r25, Y+7	; 0x07
     c78:	01 96       	adiw	r24, 0x01	; 1
     c7a:	9f 83       	std	Y+7, r25	; 0x07
     c7c:	8e 83       	std	Y+6, r24	; 0x06
     c7e:	21 e0       	ldi	r18, 0x01	; 1
     c80:	0f c0       	rjmp	.+30     	; 0xca0 <xQueueTakeMutexRecursive+0x4a>
     c82:	ce 01       	movw	r24, r28
     c84:	60 e0       	ldi	r22, 0x00	; 0
     c86:	70 e0       	ldi	r23, 0x00	; 0
     c88:	a7 01       	movw	r20, r14
     c8a:	20 e0       	ldi	r18, 0x00	; 0
     c8c:	0e 94 46 05 	call	0xa8c	; 0xa8c <xQueueGenericReceive>
     c90:	28 2f       	mov	r18, r24
     c92:	81 30       	cpi	r24, 0x01	; 1
     c94:	29 f4       	brne	.+10     	; 0xca0 <xQueueTakeMutexRecursive+0x4a>
     c96:	8e 81       	ldd	r24, Y+6	; 0x06
     c98:	9f 81       	ldd	r25, Y+7	; 0x07
     c9a:	01 96       	adiw	r24, 0x01	; 1
     c9c:	9f 83       	std	Y+7, r25	; 0x07
     c9e:	8e 83       	std	Y+6, r24	; 0x06
     ca0:	82 2f       	mov	r24, r18
     ca2:	df 91       	pop	r29
     ca4:	cf 91       	pop	r28
     ca6:	1f 91       	pop	r17
     ca8:	0f 91       	pop	r16
     caa:	ff 90       	pop	r15
     cac:	ef 90       	pop	r14
     cae:	08 95       	ret

00000cb0 <prvCopyDataToQueue>:
     cb0:	cf 93       	push	r28
     cb2:	df 93       	push	r29
     cb4:	ec 01       	movw	r28, r24
     cb6:	84 2f       	mov	r24, r20
     cb8:	4c 8d       	ldd	r20, Y+28	; 0x1c
     cba:	44 23       	and	r20, r20
     cbc:	59 f4       	brne	.+22     	; 0xcd4 <prvCopyDataToQueue+0x24>
     cbe:	88 81       	ld	r24, Y
     cc0:	99 81       	ldd	r25, Y+1	; 0x01
     cc2:	89 2b       	or	r24, r25
     cc4:	d9 f5       	brne	.+118    	; 0xd3c <prvCopyDataToQueue+0x8c>
     cc6:	8a 81       	ldd	r24, Y+2	; 0x02
     cc8:	9b 81       	ldd	r25, Y+3	; 0x03
     cca:	0e 94 d5 08 	call	0x11aa	; 0x11aa <vTaskPriorityDisinherit>
     cce:	1b 82       	std	Y+3, r1	; 0x03
     cd0:	1a 82       	std	Y+2, r1	; 0x02
     cd2:	34 c0       	rjmp	.+104    	; 0xd3c <prvCopyDataToQueue+0x8c>
     cd4:	88 23       	and	r24, r24
     cd6:	b1 f4       	brne	.+44     	; 0xd04 <prvCopyDataToQueue+0x54>
     cd8:	8c 81       	ldd	r24, Y+4	; 0x04
     cda:	9d 81       	ldd	r25, Y+5	; 0x05
     cdc:	50 e0       	ldi	r21, 0x00	; 0
     cde:	0e 94 52 0d 	call	0x1aa4	; 0x1aa4 <memcpy>
     ce2:	8c 8d       	ldd	r24, Y+28	; 0x1c
     ce4:	2c 81       	ldd	r18, Y+4	; 0x04
     ce6:	3d 81       	ldd	r19, Y+5	; 0x05
     ce8:	28 0f       	add	r18, r24
     cea:	31 1d       	adc	r19, r1
     cec:	3d 83       	std	Y+5, r19	; 0x05
     cee:	2c 83       	std	Y+4, r18	; 0x04
     cf0:	8a 81       	ldd	r24, Y+2	; 0x02
     cf2:	9b 81       	ldd	r25, Y+3	; 0x03
     cf4:	28 17       	cp	r18, r24
     cf6:	39 07       	cpc	r19, r25
     cf8:	08 f1       	brcs	.+66     	; 0xd3c <prvCopyDataToQueue+0x8c>
     cfa:	88 81       	ld	r24, Y
     cfc:	99 81       	ldd	r25, Y+1	; 0x01
     cfe:	9d 83       	std	Y+5, r25	; 0x05
     d00:	8c 83       	std	Y+4, r24	; 0x04
     d02:	1c c0       	rjmp	.+56     	; 0xd3c <prvCopyDataToQueue+0x8c>
     d04:	8e 81       	ldd	r24, Y+6	; 0x06
     d06:	9f 81       	ldd	r25, Y+7	; 0x07
     d08:	50 e0       	ldi	r21, 0x00	; 0
     d0a:	0e 94 52 0d 	call	0x1aa4	; 0x1aa4 <memcpy>
     d0e:	8c 8d       	ldd	r24, Y+28	; 0x1c
     d10:	90 e0       	ldi	r25, 0x00	; 0
     d12:	44 27       	eor	r20, r20
     d14:	55 27       	eor	r21, r21
     d16:	48 1b       	sub	r20, r24
     d18:	59 0b       	sbc	r21, r25
     d1a:	8e 81       	ldd	r24, Y+6	; 0x06
     d1c:	9f 81       	ldd	r25, Y+7	; 0x07
     d1e:	84 0f       	add	r24, r20
     d20:	95 1f       	adc	r25, r21
     d22:	9f 83       	std	Y+7, r25	; 0x07
     d24:	8e 83       	std	Y+6, r24	; 0x06
     d26:	28 81       	ld	r18, Y
     d28:	39 81       	ldd	r19, Y+1	; 0x01
     d2a:	82 17       	cp	r24, r18
     d2c:	93 07       	cpc	r25, r19
     d2e:	30 f4       	brcc	.+12     	; 0xd3c <prvCopyDataToQueue+0x8c>
     d30:	8a 81       	ldd	r24, Y+2	; 0x02
     d32:	9b 81       	ldd	r25, Y+3	; 0x03
     d34:	84 0f       	add	r24, r20
     d36:	95 1f       	adc	r25, r21
     d38:	9f 83       	std	Y+7, r25	; 0x07
     d3a:	8e 83       	std	Y+6, r24	; 0x06
     d3c:	8a 8d       	ldd	r24, Y+26	; 0x1a
     d3e:	8f 5f       	subi	r24, 0xFF	; 255
     d40:	8a 8f       	std	Y+26, r24	; 0x1a
     d42:	df 91       	pop	r29
     d44:	cf 91       	pop	r28
     d46:	08 95       	ret

00000d48 <xQueueGenericSendFromISR>:
     d48:	0f 93       	push	r16
     d4a:	1f 93       	push	r17
     d4c:	cf 93       	push	r28
     d4e:	df 93       	push	r29
     d50:	ec 01       	movw	r28, r24
     d52:	8a 01       	movw	r16, r20
     d54:	9a 8d       	ldd	r25, Y+26	; 0x1a
     d56:	8b 8d       	ldd	r24, Y+27	; 0x1b
     d58:	98 17       	cp	r25, r24
     d5a:	10 f0       	brcs	.+4      	; 0xd60 <xQueueGenericSendFromISR+0x18>
     d5c:	80 e0       	ldi	r24, 0x00	; 0
     d5e:	17 c0       	rjmp	.+46     	; 0xd8e <xQueueGenericSendFromISR+0x46>
     d60:	ce 01       	movw	r24, r28
     d62:	42 2f       	mov	r20, r18
     d64:	0e 94 58 06 	call	0xcb0	; 0xcb0 <prvCopyDataToQueue>
     d68:	8e 8d       	ldd	r24, Y+30	; 0x1e
     d6a:	8f 3f       	cpi	r24, 0xFF	; 255
     d6c:	69 f4       	brne	.+26     	; 0xd88 <xQueueGenericSendFromISR+0x40>
     d6e:	89 89       	ldd	r24, Y+17	; 0x11
     d70:	88 23       	and	r24, r24
     d72:	61 f0       	breq	.+24     	; 0xd8c <xQueueGenericSendFromISR+0x44>
     d74:	ce 01       	movw	r24, r28
     d76:	41 96       	adiw	r24, 0x11	; 17
     d78:	0e 94 4c 09 	call	0x1298	; 0x1298 <xTaskRemoveFromEventList>
     d7c:	88 23       	and	r24, r24
     d7e:	31 f0       	breq	.+12     	; 0xd8c <xQueueGenericSendFromISR+0x44>
     d80:	81 e0       	ldi	r24, 0x01	; 1
     d82:	f8 01       	movw	r30, r16
     d84:	80 83       	st	Z, r24
     d86:	03 c0       	rjmp	.+6      	; 0xd8e <xQueueGenericSendFromISR+0x46>
     d88:	8f 5f       	subi	r24, 0xFF	; 255
     d8a:	8e 8f       	std	Y+30, r24	; 0x1e
     d8c:	81 e0       	ldi	r24, 0x01	; 1
     d8e:	df 91       	pop	r29
     d90:	cf 91       	pop	r28
     d92:	1f 91       	pop	r17
     d94:	0f 91       	pop	r16
     d96:	08 95       	ret

00000d98 <xQueueGenericSend>:
     d98:	7f 92       	push	r7
     d9a:	8f 92       	push	r8
     d9c:	9f 92       	push	r9
     d9e:	af 92       	push	r10
     da0:	bf 92       	push	r11
     da2:	cf 92       	push	r12
     da4:	df 92       	push	r13
     da6:	ef 92       	push	r14
     da8:	ff 92       	push	r15
     daa:	0f 93       	push	r16
     dac:	1f 93       	push	r17
     dae:	df 93       	push	r29
     db0:	cf 93       	push	r28
     db2:	00 d0       	rcall	.+0      	; 0xdb4 <xQueueGenericSend+0x1c>
     db4:	00 d0       	rcall	.+0      	; 0xdb6 <xQueueGenericSend+0x1e>
     db6:	0f 92       	push	r0
     db8:	cd b7       	in	r28, 0x3d	; 61
     dba:	de b7       	in	r29, 0x3e	; 62
     dbc:	8c 01       	movw	r16, r24
     dbe:	6b 01       	movw	r12, r22
     dc0:	5d 83       	std	Y+5, r21	; 0x05
     dc2:	4c 83       	std	Y+4, r20	; 0x04
     dc4:	72 2e       	mov	r7, r18
     dc6:	48 e0       	ldi	r20, 0x08	; 8
     dc8:	e4 2e       	mov	r14, r20
     dca:	f1 2c       	mov	r15, r1
     dcc:	e8 0e       	add	r14, r24
     dce:	f9 1e       	adc	r15, r25
     dd0:	20 e0       	ldi	r18, 0x00	; 0
     dd2:	5e 01       	movw	r10, r28
     dd4:	08 94       	sec
     dd6:	a1 1c       	adc	r10, r1
     dd8:	b1 1c       	adc	r11, r1
     dda:	34 e0       	ldi	r19, 0x04	; 4
     ddc:	83 2e       	mov	r8, r19
     dde:	91 2c       	mov	r9, r1
     de0:	8c 0e       	add	r8, r28
     de2:	9d 1e       	adc	r9, r29
     de4:	01 c0       	rjmp	.+2      	; 0xde8 <xQueueGenericSend+0x50>
     de6:	21 e0       	ldi	r18, 0x01	; 1
     de8:	0f b6       	in	r0, 0x3f	; 63
     dea:	f8 94       	cli
     dec:	0f 92       	push	r0
     dee:	f8 01       	movw	r30, r16
     df0:	92 8d       	ldd	r25, Z+26	; 0x1a
     df2:	83 8d       	ldd	r24, Z+27	; 0x1b
     df4:	98 17       	cp	r25, r24
     df6:	a8 f4       	brcc	.+42     	; 0xe22 <xQueueGenericSend+0x8a>
     df8:	c8 01       	movw	r24, r16
     dfa:	b6 01       	movw	r22, r12
     dfc:	47 2d       	mov	r20, r7
     dfe:	0e 94 58 06 	call	0xcb0	; 0xcb0 <prvCopyDataToQueue>
     e02:	f8 01       	movw	r30, r16
     e04:	81 89       	ldd	r24, Z+17	; 0x11
     e06:	88 23       	and	r24, r24
     e08:	41 f0       	breq	.+16     	; 0xe1a <xQueueGenericSend+0x82>
     e0a:	c8 01       	movw	r24, r16
     e0c:	41 96       	adiw	r24, 0x11	; 17
     e0e:	0e 94 4c 09 	call	0x1298	; 0x1298 <xTaskRemoveFromEventList>
     e12:	81 30       	cpi	r24, 0x01	; 1
     e14:	11 f4       	brne	.+4      	; 0xe1a <xQueueGenericSend+0x82>
     e16:	0e 94 44 04 	call	0x888	; 0x888 <vPortYield>
     e1a:	0f 90       	pop	r0
     e1c:	0f be       	out	0x3f, r0	; 63
     e1e:	81 e0       	ldi	r24, 0x01	; 1
     e20:	4c c0       	rjmp	.+152    	; 0xeba <xQueueGenericSend+0x122>
     e22:	8c 81       	ldd	r24, Y+4	; 0x04
     e24:	9d 81       	ldd	r25, Y+5	; 0x05
     e26:	89 2b       	or	r24, r25
     e28:	19 f4       	brne	.+6      	; 0xe30 <xQueueGenericSend+0x98>
     e2a:	0f 90       	pop	r0
     e2c:	0f be       	out	0x3f, r0	; 63
     e2e:	44 c0       	rjmp	.+136    	; 0xeb8 <xQueueGenericSend+0x120>
     e30:	22 23       	and	r18, r18
     e32:	19 f4       	brne	.+6      	; 0xe3a <xQueueGenericSend+0xa2>
     e34:	c5 01       	movw	r24, r10
     e36:	0e 94 86 08 	call	0x110c	; 0x110c <vTaskSetTimeOutState>
     e3a:	0f 90       	pop	r0
     e3c:	0f be       	out	0x3f, r0	; 63
     e3e:	0e 94 2a 08 	call	0x1054	; 0x1054 <vTaskSuspendAll>
     e42:	0f b6       	in	r0, 0x3f	; 63
     e44:	f8 94       	cli
     e46:	0f 92       	push	r0
     e48:	f8 01       	movw	r30, r16
     e4a:	85 8d       	ldd	r24, Z+29	; 0x1d
     e4c:	8f 3f       	cpi	r24, 0xFF	; 255
     e4e:	09 f4       	brne	.+2      	; 0xe52 <xQueueGenericSend+0xba>
     e50:	15 8e       	std	Z+29, r1	; 0x1d
     e52:	f8 01       	movw	r30, r16
     e54:	86 8d       	ldd	r24, Z+30	; 0x1e
     e56:	8f 3f       	cpi	r24, 0xFF	; 255
     e58:	09 f4       	brne	.+2      	; 0xe5c <xQueueGenericSend+0xc4>
     e5a:	16 8e       	std	Z+30, r1	; 0x1e
     e5c:	0f 90       	pop	r0
     e5e:	0f be       	out	0x3f, r0	; 63
     e60:	c5 01       	movw	r24, r10
     e62:	b4 01       	movw	r22, r8
     e64:	0e 94 91 08 	call	0x1122	; 0x1122 <xTaskCheckForTimeOut>
     e68:	88 23       	and	r24, r24
     e6a:	09 f5       	brne	.+66     	; 0xeae <xQueueGenericSend+0x116>
     e6c:	0f b6       	in	r0, 0x3f	; 63
     e6e:	f8 94       	cli
     e70:	0f 92       	push	r0
     e72:	f8 01       	movw	r30, r16
     e74:	92 8d       	ldd	r25, Z+26	; 0x1a
     e76:	0f 90       	pop	r0
     e78:	0f be       	out	0x3f, r0	; 63
     e7a:	f8 01       	movw	r30, r16
     e7c:	83 8d       	ldd	r24, Z+27	; 0x1b
     e7e:	98 17       	cp	r25, r24
     e80:	81 f4       	brne	.+32     	; 0xea2 <xQueueGenericSend+0x10a>
     e82:	6c 81       	ldd	r22, Y+4	; 0x04
     e84:	7d 81       	ldd	r23, Y+5	; 0x05
     e86:	c7 01       	movw	r24, r14
     e88:	0e 94 66 0a 	call	0x14cc	; 0x14cc <vTaskPlaceOnEventList>
     e8c:	c8 01       	movw	r24, r16
     e8e:	0e 94 06 05 	call	0xa0c	; 0xa0c <prvUnlockQueue>
     e92:	0e 94 83 0a 	call	0x1506	; 0x1506 <xTaskResumeAll>
     e96:	88 23       	and	r24, r24
     e98:	09 f0       	breq	.+2      	; 0xe9c <xQueueGenericSend+0x104>
     e9a:	a5 cf       	rjmp	.-182    	; 0xde6 <xQueueGenericSend+0x4e>
     e9c:	0e 94 44 04 	call	0x888	; 0x888 <vPortYield>
     ea0:	a2 cf       	rjmp	.-188    	; 0xde6 <xQueueGenericSend+0x4e>
     ea2:	c8 01       	movw	r24, r16
     ea4:	0e 94 06 05 	call	0xa0c	; 0xa0c <prvUnlockQueue>
     ea8:	0e 94 83 0a 	call	0x1506	; 0x1506 <xTaskResumeAll>
     eac:	9c cf       	rjmp	.-200    	; 0xde6 <xQueueGenericSend+0x4e>
     eae:	c8 01       	movw	r24, r16
     eb0:	0e 94 06 05 	call	0xa0c	; 0xa0c <prvUnlockQueue>
     eb4:	0e 94 83 0a 	call	0x1506	; 0x1506 <xTaskResumeAll>
     eb8:	80 e0       	ldi	r24, 0x00	; 0
     eba:	0f 90       	pop	r0
     ebc:	0f 90       	pop	r0
     ebe:	0f 90       	pop	r0
     ec0:	0f 90       	pop	r0
     ec2:	0f 90       	pop	r0
     ec4:	cf 91       	pop	r28
     ec6:	df 91       	pop	r29
     ec8:	1f 91       	pop	r17
     eca:	0f 91       	pop	r16
     ecc:	ff 90       	pop	r15
     ece:	ef 90       	pop	r14
     ed0:	df 90       	pop	r13
     ed2:	cf 90       	pop	r12
     ed4:	bf 90       	pop	r11
     ed6:	af 90       	pop	r10
     ed8:	9f 90       	pop	r9
     eda:	8f 90       	pop	r8
     edc:	7f 90       	pop	r7
     ede:	08 95       	ret

00000ee0 <xQueueGiveMutexRecursive>:
     ee0:	0f 93       	push	r16
     ee2:	1f 93       	push	r17
     ee4:	cf 93       	push	r28
     ee6:	df 93       	push	r29
     ee8:	ec 01       	movw	r28, r24
     eea:	0a 81       	ldd	r16, Y+2	; 0x02
     eec:	1b 81       	ldd	r17, Y+3	; 0x03
     eee:	0e 94 cf 08 	call	0x119e	; 0x119e <xTaskGetCurrentTaskHandle>
     ef2:	08 17       	cp	r16, r24
     ef4:	19 07       	cpc	r17, r25
     ef6:	11 f0       	breq	.+4      	; 0xefc <xQueueGiveMutexRecursive+0x1c>
     ef8:	80 e0       	ldi	r24, 0x00	; 0
     efa:	10 c0       	rjmp	.+32     	; 0xf1c <xQueueGiveMutexRecursive+0x3c>
     efc:	8e 81       	ldd	r24, Y+6	; 0x06
     efe:	9f 81       	ldd	r25, Y+7	; 0x07
     f00:	01 97       	sbiw	r24, 0x01	; 1
     f02:	9f 83       	std	Y+7, r25	; 0x07
     f04:	8e 83       	std	Y+6, r24	; 0x06
     f06:	89 2b       	or	r24, r25
     f08:	41 f4       	brne	.+16     	; 0xf1a <xQueueGiveMutexRecursive+0x3a>
     f0a:	ce 01       	movw	r24, r28
     f0c:	60 e0       	ldi	r22, 0x00	; 0
     f0e:	70 e0       	ldi	r23, 0x00	; 0
     f10:	40 e0       	ldi	r20, 0x00	; 0
     f12:	50 e0       	ldi	r21, 0x00	; 0
     f14:	20 e0       	ldi	r18, 0x00	; 0
     f16:	0e 94 cc 06 	call	0xd98	; 0xd98 <xQueueGenericSend>
     f1a:	81 e0       	ldi	r24, 0x01	; 1
     f1c:	df 91       	pop	r29
     f1e:	cf 91       	pop	r28
     f20:	1f 91       	pop	r17
     f22:	0f 91       	pop	r16
     f24:	08 95       	ret

00000f26 <xQueueCreateMutex>:
     f26:	cf 93       	push	r28
     f28:	df 93       	push	r29
     f2a:	8f e1       	ldi	r24, 0x1F	; 31
     f2c:	90 e0       	ldi	r25, 0x00	; 0
     f2e:	0e 94 17 02 	call	0x42e	; 0x42e <pvPortMalloc>
     f32:	ec 01       	movw	r28, r24
     f34:	00 97       	sbiw	r24, 0x00	; 0
     f36:	f9 f0       	breq	.+62     	; 0xf76 <xQueueCreateMutex+0x50>
     f38:	1b 82       	std	Y+3, r1	; 0x03
     f3a:	1a 82       	std	Y+2, r1	; 0x02
     f3c:	19 82       	std	Y+1, r1	; 0x01
     f3e:	18 82       	st	Y, r1
     f40:	1d 82       	std	Y+5, r1	; 0x05
     f42:	1c 82       	std	Y+4, r1	; 0x04
     f44:	1f 82       	std	Y+7, r1	; 0x07
     f46:	1e 82       	std	Y+6, r1	; 0x06
     f48:	1a 8e       	std	Y+26, r1	; 0x1a
     f4a:	81 e0       	ldi	r24, 0x01	; 1
     f4c:	8b 8f       	std	Y+27, r24	; 0x1b
     f4e:	1c 8e       	std	Y+28, r1	; 0x1c
     f50:	8f ef       	ldi	r24, 0xFF	; 255
     f52:	8d 8f       	std	Y+29, r24	; 0x1d
     f54:	8e 8f       	std	Y+30, r24	; 0x1e
     f56:	ce 01       	movw	r24, r28
     f58:	08 96       	adiw	r24, 0x08	; 8
     f5a:	0e 94 45 02 	call	0x48a	; 0x48a <vListInitialise>
     f5e:	ce 01       	movw	r24, r28
     f60:	41 96       	adiw	r24, 0x11	; 17
     f62:	0e 94 45 02 	call	0x48a	; 0x48a <vListInitialise>
     f66:	ce 01       	movw	r24, r28
     f68:	60 e0       	ldi	r22, 0x00	; 0
     f6a:	70 e0       	ldi	r23, 0x00	; 0
     f6c:	40 e0       	ldi	r20, 0x00	; 0
     f6e:	50 e0       	ldi	r21, 0x00	; 0
     f70:	20 e0       	ldi	r18, 0x00	; 0
     f72:	0e 94 cc 06 	call	0xd98	; 0xd98 <xQueueGenericSend>
     f76:	ce 01       	movw	r24, r28
     f78:	df 91       	pop	r29
     f7a:	cf 91       	pop	r28
     f7c:	08 95       	ret

00000f7e <xQueueCreate>:
     f7e:	af 92       	push	r10
     f80:	bf 92       	push	r11
     f82:	cf 92       	push	r12
     f84:	df 92       	push	r13
     f86:	ef 92       	push	r14
     f88:	ff 92       	push	r15
     f8a:	0f 93       	push	r16
     f8c:	1f 93       	push	r17
     f8e:	cf 93       	push	r28
     f90:	df 93       	push	r29
     f92:	b8 2e       	mov	r11, r24
     f94:	a6 2e       	mov	r10, r22
     f96:	88 23       	and	r24, r24
     f98:	09 f4       	brne	.+2      	; 0xf9c <xQueueCreate+0x1e>
     f9a:	42 c0       	rjmp	.+132    	; 0x1020 <xQueueCreate+0xa2>
     f9c:	8f e1       	ldi	r24, 0x1F	; 31
     f9e:	90 e0       	ldi	r25, 0x00	; 0
     fa0:	0e 94 17 02 	call	0x42e	; 0x42e <pvPortMalloc>
     fa4:	ec 01       	movw	r28, r24
     fa6:	00 97       	sbiw	r24, 0x00	; 0
     fa8:	d9 f1       	breq	.+118    	; 0x1020 <xQueueCreate+0xa2>
     faa:	eb 2c       	mov	r14, r11
     fac:	ff 24       	eor	r15, r15
     fae:	ca 2c       	mov	r12, r10
     fb0:	dd 24       	eor	r13, r13
     fb2:	ce 9c       	mul	r12, r14
     fb4:	80 01       	movw	r16, r0
     fb6:	cf 9c       	mul	r12, r15
     fb8:	10 0d       	add	r17, r0
     fba:	de 9c       	mul	r13, r14
     fbc:	10 0d       	add	r17, r0
     fbe:	11 24       	eor	r1, r1
     fc0:	c8 01       	movw	r24, r16
     fc2:	01 96       	adiw	r24, 0x01	; 1
     fc4:	0e 94 17 02 	call	0x42e	; 0x42e <pvPortMalloc>
     fc8:	9c 01       	movw	r18, r24
     fca:	99 83       	std	Y+1, r25	; 0x01
     fcc:	88 83       	st	Y, r24
     fce:	00 97       	sbiw	r24, 0x00	; 0
     fd0:	21 f1       	breq	.+72     	; 0x101a <xQueueCreate+0x9c>
     fd2:	08 0f       	add	r16, r24
     fd4:	19 1f       	adc	r17, r25
     fd6:	1b 83       	std	Y+3, r17	; 0x03
     fd8:	0a 83       	std	Y+2, r16	; 0x02
     fda:	1a 8e       	std	Y+26, r1	; 0x1a
     fdc:	9d 83       	std	Y+5, r25	; 0x05
     fde:	8c 83       	std	Y+4, r24	; 0x04
     fe0:	08 94       	sec
     fe2:	e1 08       	sbc	r14, r1
     fe4:	f1 08       	sbc	r15, r1
     fe6:	ec 9c       	mul	r14, r12
     fe8:	c0 01       	movw	r24, r0
     fea:	ed 9c       	mul	r14, r13
     fec:	90 0d       	add	r25, r0
     fee:	fc 9c       	mul	r15, r12
     ff0:	90 0d       	add	r25, r0
     ff2:	11 24       	eor	r1, r1
     ff4:	28 0f       	add	r18, r24
     ff6:	39 1f       	adc	r19, r25
     ff8:	3f 83       	std	Y+7, r19	; 0x07
     ffa:	2e 83       	std	Y+6, r18	; 0x06
     ffc:	bb 8e       	std	Y+27, r11	; 0x1b
     ffe:	ac 8e       	std	Y+28, r10	; 0x1c
    1000:	8f ef       	ldi	r24, 0xFF	; 255
    1002:	8d 8f       	std	Y+29, r24	; 0x1d
    1004:	8e 8f       	std	Y+30, r24	; 0x1e
    1006:	ce 01       	movw	r24, r28
    1008:	08 96       	adiw	r24, 0x08	; 8
    100a:	0e 94 45 02 	call	0x48a	; 0x48a <vListInitialise>
    100e:	ce 01       	movw	r24, r28
    1010:	41 96       	adiw	r24, 0x11	; 17
    1012:	0e 94 45 02 	call	0x48a	; 0x48a <vListInitialise>
    1016:	9e 01       	movw	r18, r28
    1018:	05 c0       	rjmp	.+10     	; 0x1024 <xQueueCreate+0xa6>
    101a:	ce 01       	movw	r24, r28
    101c:	0e 94 07 02 	call	0x40e	; 0x40e <vPortFree>
    1020:	20 e0       	ldi	r18, 0x00	; 0
    1022:	30 e0       	ldi	r19, 0x00	; 0
    1024:	c9 01       	movw	r24, r18
    1026:	df 91       	pop	r29
    1028:	cf 91       	pop	r28
    102a:	1f 91       	pop	r17
    102c:	0f 91       	pop	r16
    102e:	ff 90       	pop	r15
    1030:	ef 90       	pop	r14
    1032:	df 90       	pop	r13
    1034:	cf 90       	pop	r12
    1036:	bf 90       	pop	r11
    1038:	af 90       	pop	r10
    103a:	08 95       	ret

0000103c <xQueueCreateCountingSemaphore>:
    103c:	1f 93       	push	r17
    103e:	16 2f       	mov	r17, r22
    1040:	60 e0       	ldi	r22, 0x00	; 0
    1042:	0e 94 bf 07 	call	0xf7e	; 0xf7e <xQueueCreate>
    1046:	fc 01       	movw	r30, r24
    1048:	00 97       	sbiw	r24, 0x00	; 0
    104a:	09 f0       	breq	.+2      	; 0x104e <xQueueCreateCountingSemaphore+0x12>
    104c:	12 8f       	std	Z+26, r17	; 0x1a
    104e:	cf 01       	movw	r24, r30
    1050:	1f 91       	pop	r17
    1052:	08 95       	ret

00001054 <vTaskSuspendAll>:
    1054:	80 91 09 03 	lds	r24, 0x0309
    1058:	8f 5f       	subi	r24, 0xFF	; 255
    105a:	80 93 09 03 	sts	0x0309, r24
    105e:	08 95       	ret

00001060 <xTaskGetTickCount>:
    1060:	0f b6       	in	r0, 0x3f	; 63
    1062:	f8 94       	cli
    1064:	0f 92       	push	r0
    1066:	20 91 07 03 	lds	r18, 0x0307
    106a:	30 91 08 03 	lds	r19, 0x0308
    106e:	0f 90       	pop	r0
    1070:	0f be       	out	0x3f, r0	; 63
    1072:	c9 01       	movw	r24, r18
    1074:	08 95       	ret

00001076 <xTaskGetTickCountFromISR>:
    1076:	20 91 07 03 	lds	r18, 0x0307
    107a:	30 91 08 03 	lds	r19, 0x0308
    107e:	c9 01       	movw	r24, r18
    1080:	08 95       	ret

00001082 <uxTaskGetNumberOfTasks>:
    1082:	80 91 0b 03 	lds	r24, 0x030B
    1086:	08 95       	ret

00001088 <vTaskSwitchContext>:
    1088:	80 91 09 03 	lds	r24, 0x0309
    108c:	88 23       	and	r24, r24
    108e:	51 f0       	breq	.+20     	; 0x10a4 <vTaskSwitchContext+0x1c>
    1090:	81 e0       	ldi	r24, 0x01	; 1
    1092:	80 93 05 03 	sts	0x0305, r24
    1096:	08 95       	ret
    1098:	80 91 04 03 	lds	r24, 0x0304
    109c:	81 50       	subi	r24, 0x01	; 1
    109e:	80 93 04 03 	sts	0x0304, r24
    10a2:	01 c0       	rjmp	.+2      	; 0x10a6 <vTaskSwitchContext+0x1e>
    10a4:	99 e0       	ldi	r25, 0x09	; 9
    10a6:	e0 91 04 03 	lds	r30, 0x0304
    10aa:	e9 9f       	mul	r30, r25
    10ac:	f0 01       	movw	r30, r0
    10ae:	11 24       	eor	r1, r1
    10b0:	e0 5f       	subi	r30, 0xF0	; 240
    10b2:	fc 4f       	sbci	r31, 0xFC	; 252
    10b4:	80 81       	ld	r24, Z
    10b6:	88 23       	and	r24, r24
    10b8:	79 f3       	breq	.-34     	; 0x1098 <vTaskSwitchContext+0x10>
    10ba:	90 91 04 03 	lds	r25, 0x0304
    10be:	89 e0       	ldi	r24, 0x09	; 9
    10c0:	98 9f       	mul	r25, r24
    10c2:	d0 01       	movw	r26, r0
    10c4:	11 24       	eor	r1, r1
    10c6:	a0 5f       	subi	r26, 0xF0	; 240
    10c8:	bc 4f       	sbci	r27, 0xFC	; 252
    10ca:	11 96       	adiw	r26, 0x01	; 1
    10cc:	ed 91       	ld	r30, X+
    10ce:	fc 91       	ld	r31, X
    10d0:	12 97       	sbiw	r26, 0x02	; 2
    10d2:	02 80       	ldd	r0, Z+2	; 0x02
    10d4:	f3 81       	ldd	r31, Z+3	; 0x03
    10d6:	e0 2d       	mov	r30, r0
    10d8:	12 96       	adiw	r26, 0x02	; 2
    10da:	fc 93       	st	X, r31
    10dc:	ee 93       	st	-X, r30
    10de:	11 97       	sbiw	r26, 0x01	; 1
    10e0:	cd 01       	movw	r24, r26
    10e2:	03 96       	adiw	r24, 0x03	; 3
    10e4:	e8 17       	cp	r30, r24
    10e6:	f9 07       	cpc	r31, r25
    10e8:	31 f4       	brne	.+12     	; 0x10f6 <vTaskSwitchContext+0x6e>
    10ea:	82 81       	ldd	r24, Z+2	; 0x02
    10ec:	93 81       	ldd	r25, Z+3	; 0x03
    10ee:	12 96       	adiw	r26, 0x02	; 2
    10f0:	9c 93       	st	X, r25
    10f2:	8e 93       	st	-X, r24
    10f4:	11 97       	sbiw	r26, 0x01	; 1
    10f6:	11 96       	adiw	r26, 0x01	; 1
    10f8:	ed 91       	ld	r30, X+
    10fa:	fc 91       	ld	r31, X
    10fc:	12 97       	sbiw	r26, 0x02	; 2
    10fe:	86 81       	ldd	r24, Z+6	; 0x06
    1100:	97 81       	ldd	r25, Z+7	; 0x07
    1102:	90 93 03 03 	sts	0x0303, r25
    1106:	80 93 02 03 	sts	0x0302, r24
    110a:	08 95       	ret

0000110c <vTaskSetTimeOutState>:
    110c:	fc 01       	movw	r30, r24
    110e:	80 91 06 03 	lds	r24, 0x0306
    1112:	80 83       	st	Z, r24
    1114:	80 91 07 03 	lds	r24, 0x0307
    1118:	90 91 08 03 	lds	r25, 0x0308
    111c:	92 83       	std	Z+2, r25	; 0x02
    111e:	81 83       	std	Z+1, r24	; 0x01
    1120:	08 95       	ret

00001122 <xTaskCheckForTimeOut>:
    1122:	fc 01       	movw	r30, r24
    1124:	db 01       	movw	r26, r22
    1126:	0f b6       	in	r0, 0x3f	; 63
    1128:	f8 94       	cli
    112a:	0f 92       	push	r0
    112c:	90 91 06 03 	lds	r25, 0x0306
    1130:	80 81       	ld	r24, Z
    1132:	98 17       	cp	r25, r24
    1134:	49 f0       	breq	.+18     	; 0x1148 <xTaskCheckForTimeOut+0x26>
    1136:	20 91 07 03 	lds	r18, 0x0307
    113a:	30 91 08 03 	lds	r19, 0x0308
    113e:	81 81       	ldd	r24, Z+1	; 0x01
    1140:	92 81       	ldd	r25, Z+2	; 0x02
    1142:	28 17       	cp	r18, r24
    1144:	39 07       	cpc	r19, r25
    1146:	18 f5       	brcc	.+70     	; 0x118e <xTaskCheckForTimeOut+0x6c>
    1148:	80 91 07 03 	lds	r24, 0x0307
    114c:	90 91 08 03 	lds	r25, 0x0308
    1150:	21 81       	ldd	r18, Z+1	; 0x01
    1152:	32 81       	ldd	r19, Z+2	; 0x02
    1154:	4d 91       	ld	r20, X+
    1156:	5c 91       	ld	r21, X
    1158:	11 97       	sbiw	r26, 0x01	; 1
    115a:	82 1b       	sub	r24, r18
    115c:	93 0b       	sbc	r25, r19
    115e:	84 17       	cp	r24, r20
    1160:	95 07       	cpc	r25, r21
    1162:	a8 f4       	brcc	.+42     	; 0x118e <xTaskCheckForTimeOut+0x6c>
    1164:	80 91 07 03 	lds	r24, 0x0307
    1168:	90 91 08 03 	lds	r25, 0x0308
    116c:	28 1b       	sub	r18, r24
    116e:	39 0b       	sbc	r19, r25
    1170:	24 0f       	add	r18, r20
    1172:	35 1f       	adc	r19, r21
    1174:	2d 93       	st	X+, r18
    1176:	3c 93       	st	X, r19
    1178:	80 91 06 03 	lds	r24, 0x0306
    117c:	80 83       	st	Z, r24
    117e:	80 91 07 03 	lds	r24, 0x0307
    1182:	90 91 08 03 	lds	r25, 0x0308
    1186:	92 83       	std	Z+2, r25	; 0x02
    1188:	81 83       	std	Z+1, r24	; 0x01
    118a:	80 e0       	ldi	r24, 0x00	; 0
    118c:	01 c0       	rjmp	.+2      	; 0x1190 <xTaskCheckForTimeOut+0x6e>
    118e:	81 e0       	ldi	r24, 0x01	; 1
    1190:	0f 90       	pop	r0
    1192:	0f be       	out	0x3f, r0	; 63
    1194:	08 95       	ret

00001196 <vTaskMissedYield>:
    1196:	81 e0       	ldi	r24, 0x01	; 1
    1198:	80 93 05 03 	sts	0x0305, r24
    119c:	08 95       	ret

0000119e <xTaskGetCurrentTaskHandle>:
    119e:	20 91 02 03 	lds	r18, 0x0302
    11a2:	30 91 03 03 	lds	r19, 0x0303
    11a6:	c9 01       	movw	r24, r18
    11a8:	08 95       	ret

000011aa <vTaskPriorityDisinherit>:
    11aa:	0f 93       	push	r16
    11ac:	1f 93       	push	r17
    11ae:	cf 93       	push	r28
    11b0:	df 93       	push	r29
    11b2:	ec 01       	movw	r28, r24
    11b4:	00 97       	sbiw	r24, 0x00	; 0
    11b6:	09 f1       	breq	.+66     	; 0x11fa <vTaskPriorityDisinherit+0x50>
    11b8:	9e 89       	ldd	r25, Y+22	; 0x16
    11ba:	89 a1       	ldd	r24, Y+33	; 0x21
    11bc:	98 17       	cp	r25, r24
    11be:	e9 f0       	breq	.+58     	; 0x11fa <vTaskPriorityDisinherit+0x50>
    11c0:	8e 01       	movw	r16, r28
    11c2:	0e 5f       	subi	r16, 0xFE	; 254
    11c4:	1f 4f       	sbci	r17, 0xFF	; 255
    11c6:	c8 01       	movw	r24, r16
    11c8:	0e 94 b7 02 	call	0x56e	; 0x56e <vListRemove>
    11cc:	29 a1       	ldd	r18, Y+33	; 0x21
    11ce:	2e 8b       	std	Y+22, r18	; 0x16
    11d0:	83 e0       	ldi	r24, 0x03	; 3
    11d2:	90 e0       	ldi	r25, 0x00	; 0
    11d4:	82 1b       	sub	r24, r18
    11d6:	91 09       	sbc	r25, r1
    11d8:	9d 87       	std	Y+13, r25	; 0x0d
    11da:	8c 87       	std	Y+12, r24	; 0x0c
    11dc:	80 91 04 03 	lds	r24, 0x0304
    11e0:	82 17       	cp	r24, r18
    11e2:	10 f4       	brcc	.+4      	; 0x11e8 <vTaskPriorityDisinherit+0x3e>
    11e4:	20 93 04 03 	sts	0x0304, r18
    11e8:	89 e0       	ldi	r24, 0x09	; 9
    11ea:	28 9f       	mul	r18, r24
    11ec:	c0 01       	movw	r24, r0
    11ee:	11 24       	eor	r1, r1
    11f0:	80 5f       	subi	r24, 0xF0	; 240
    11f2:	9c 4f       	sbci	r25, 0xFC	; 252
    11f4:	b8 01       	movw	r22, r16
    11f6:	0e 94 59 02 	call	0x4b2	; 0x4b2 <vListInsertEnd>
    11fa:	df 91       	pop	r29
    11fc:	cf 91       	pop	r28
    11fe:	1f 91       	pop	r17
    1200:	0f 91       	pop	r16
    1202:	08 95       	ret

00001204 <vTaskPriorityInherit>:
    1204:	0f 93       	push	r16
    1206:	1f 93       	push	r17
    1208:	cf 93       	push	r28
    120a:	df 93       	push	r29
    120c:	ec 01       	movw	r28, r24
    120e:	e0 91 02 03 	lds	r30, 0x0302
    1212:	f0 91 03 03 	lds	r31, 0x0303
    1216:	3e 89       	ldd	r19, Y+22	; 0x16
    1218:	86 89       	ldd	r24, Z+22	; 0x16
    121a:	38 17       	cp	r19, r24
    121c:	c0 f5       	brcc	.+112    	; 0x128e <vTaskPriorityInherit+0x8a>
    121e:	e0 91 02 03 	lds	r30, 0x0302
    1222:	f0 91 03 03 	lds	r31, 0x0303
    1226:	26 89       	ldd	r18, Z+22	; 0x16
    1228:	83 e0       	ldi	r24, 0x03	; 3
    122a:	90 e0       	ldi	r25, 0x00	; 0
    122c:	82 1b       	sub	r24, r18
    122e:	91 09       	sbc	r25, r1
    1230:	9d 87       	std	Y+13, r25	; 0x0d
    1232:	8c 87       	std	Y+12, r24	; 0x0c
    1234:	89 e0       	ldi	r24, 0x09	; 9
    1236:	38 9f       	mul	r19, r24
    1238:	c0 01       	movw	r24, r0
    123a:	11 24       	eor	r1, r1
    123c:	80 5f       	subi	r24, 0xF0	; 240
    123e:	9c 4f       	sbci	r25, 0xFC	; 252
    1240:	2a 85       	ldd	r18, Y+10	; 0x0a
    1242:	3b 85       	ldd	r19, Y+11	; 0x0b
    1244:	28 17       	cp	r18, r24
    1246:	39 07       	cpc	r19, r25
    1248:	e1 f4       	brne	.+56     	; 0x1282 <vTaskPriorityInherit+0x7e>
    124a:	8e 01       	movw	r16, r28
    124c:	0e 5f       	subi	r16, 0xFE	; 254
    124e:	1f 4f       	sbci	r17, 0xFF	; 255
    1250:	c8 01       	movw	r24, r16
    1252:	0e 94 b7 02 	call	0x56e	; 0x56e <vListRemove>
    1256:	e0 91 02 03 	lds	r30, 0x0302
    125a:	f0 91 03 03 	lds	r31, 0x0303
    125e:	96 89       	ldd	r25, Z+22	; 0x16
    1260:	9e 8b       	std	Y+22, r25	; 0x16
    1262:	80 91 04 03 	lds	r24, 0x0304
    1266:	89 17       	cp	r24, r25
    1268:	10 f4       	brcc	.+4      	; 0x126e <vTaskPriorityInherit+0x6a>
    126a:	90 93 04 03 	sts	0x0304, r25
    126e:	89 e0       	ldi	r24, 0x09	; 9
    1270:	98 9f       	mul	r25, r24
    1272:	c0 01       	movw	r24, r0
    1274:	11 24       	eor	r1, r1
    1276:	80 5f       	subi	r24, 0xF0	; 240
    1278:	9c 4f       	sbci	r25, 0xFC	; 252
    127a:	b8 01       	movw	r22, r16
    127c:	0e 94 59 02 	call	0x4b2	; 0x4b2 <vListInsertEnd>
    1280:	06 c0       	rjmp	.+12     	; 0x128e <vTaskPriorityInherit+0x8a>
    1282:	e0 91 02 03 	lds	r30, 0x0302
    1286:	f0 91 03 03 	lds	r31, 0x0303
    128a:	86 89       	ldd	r24, Z+22	; 0x16
    128c:	8e 8b       	std	Y+22, r24	; 0x16
    128e:	df 91       	pop	r29
    1290:	cf 91       	pop	r28
    1292:	1f 91       	pop	r17
    1294:	0f 91       	pop	r16
    1296:	08 95       	ret

00001298 <xTaskRemoveFromEventList>:
    1298:	0f 93       	push	r16
    129a:	1f 93       	push	r17
    129c:	cf 93       	push	r28
    129e:	df 93       	push	r29
    12a0:	fc 01       	movw	r30, r24
    12a2:	05 80       	ldd	r0, Z+5	; 0x05
    12a4:	f6 81       	ldd	r31, Z+6	; 0x06
    12a6:	e0 2d       	mov	r30, r0
    12a8:	06 81       	ldd	r16, Z+6	; 0x06
    12aa:	17 81       	ldd	r17, Z+7	; 0x07
    12ac:	e8 01       	movw	r28, r16
    12ae:	2c 96       	adiw	r28, 0x0c	; 12
    12b0:	ce 01       	movw	r24, r28
    12b2:	0e 94 b7 02 	call	0x56e	; 0x56e <vListRemove>
    12b6:	80 91 09 03 	lds	r24, 0x0309
    12ba:	88 23       	and	r24, r24
    12bc:	a9 f4       	brne	.+42     	; 0x12e8 <xTaskRemoveFromEventList+0x50>
    12be:	e8 01       	movw	r28, r16
    12c0:	22 96       	adiw	r28, 0x02	; 2
    12c2:	ce 01       	movw	r24, r28
    12c4:	0e 94 b7 02 	call	0x56e	; 0x56e <vListRemove>
    12c8:	d8 01       	movw	r26, r16
    12ca:	56 96       	adiw	r26, 0x16	; 22
    12cc:	9c 91       	ld	r25, X
    12ce:	80 91 04 03 	lds	r24, 0x0304
    12d2:	89 17       	cp	r24, r25
    12d4:	10 f4       	brcc	.+4      	; 0x12da <xTaskRemoveFromEventList+0x42>
    12d6:	90 93 04 03 	sts	0x0304, r25
    12da:	89 e0       	ldi	r24, 0x09	; 9
    12dc:	98 9f       	mul	r25, r24
    12de:	c0 01       	movw	r24, r0
    12e0:	11 24       	eor	r1, r1
    12e2:	80 5f       	subi	r24, 0xF0	; 240
    12e4:	9c 4f       	sbci	r25, 0xFC	; 252
    12e6:	02 c0       	rjmp	.+4      	; 0x12ec <xTaskRemoveFromEventList+0x54>
    12e8:	81 e4       	ldi	r24, 0x41	; 65
    12ea:	93 e0       	ldi	r25, 0x03	; 3
    12ec:	be 01       	movw	r22, r28
    12ee:	0e 94 59 02 	call	0x4b2	; 0x4b2 <vListInsertEnd>
    12f2:	e0 91 02 03 	lds	r30, 0x0302
    12f6:	f0 91 03 03 	lds	r31, 0x0303
    12fa:	20 e0       	ldi	r18, 0x00	; 0
    12fc:	d8 01       	movw	r26, r16
    12fe:	56 96       	adiw	r26, 0x16	; 22
    1300:	9c 91       	ld	r25, X
    1302:	86 89       	ldd	r24, Z+22	; 0x16
    1304:	98 17       	cp	r25, r24
    1306:	08 f0       	brcs	.+2      	; 0x130a <xTaskRemoveFromEventList+0x72>
    1308:	21 e0       	ldi	r18, 0x01	; 1
    130a:	82 2f       	mov	r24, r18
    130c:	df 91       	pop	r29
    130e:	cf 91       	pop	r28
    1310:	1f 91       	pop	r17
    1312:	0f 91       	pop	r16
    1314:	08 95       	ret

00001316 <vTaskIncrementTick>:
    1316:	ff 92       	push	r15
    1318:	0f 93       	push	r16
    131a:	1f 93       	push	r17
    131c:	cf 93       	push	r28
    131e:	df 93       	push	r29
    1320:	80 91 09 03 	lds	r24, 0x0309
    1324:	88 23       	and	r24, r24
    1326:	09 f0       	breq	.+2      	; 0x132a <vTaskIncrementTick+0x14>
    1328:	8f c0       	rjmp	.+286    	; 0x1448 <vTaskIncrementTick+0x132>
    132a:	80 91 07 03 	lds	r24, 0x0307
    132e:	90 91 08 03 	lds	r25, 0x0308
    1332:	01 96       	adiw	r24, 0x01	; 1
    1334:	90 93 08 03 	sts	0x0308, r25
    1338:	80 93 07 03 	sts	0x0307, r24
    133c:	80 91 07 03 	lds	r24, 0x0307
    1340:	90 91 08 03 	lds	r25, 0x0308
    1344:	89 2b       	or	r24, r25
    1346:	79 f5       	brne	.+94     	; 0x13a6 <vTaskIncrementTick+0x90>
    1348:	20 91 3d 03 	lds	r18, 0x033D
    134c:	30 91 3e 03 	lds	r19, 0x033E
    1350:	80 91 3f 03 	lds	r24, 0x033F
    1354:	90 91 40 03 	lds	r25, 0x0340
    1358:	90 93 3e 03 	sts	0x033E, r25
    135c:	80 93 3d 03 	sts	0x033D, r24
    1360:	30 93 40 03 	sts	0x0340, r19
    1364:	20 93 3f 03 	sts	0x033F, r18
    1368:	80 91 06 03 	lds	r24, 0x0306
    136c:	8f 5f       	subi	r24, 0xFF	; 255
    136e:	80 93 06 03 	sts	0x0306, r24
    1372:	e0 91 3d 03 	lds	r30, 0x033D
    1376:	f0 91 3e 03 	lds	r31, 0x033E
    137a:	80 81       	ld	r24, Z
    137c:	88 23       	and	r24, r24
    137e:	19 f4       	brne	.+6      	; 0x1386 <vTaskIncrementTick+0x70>
    1380:	8f ef       	ldi	r24, 0xFF	; 255
    1382:	9f ef       	ldi	r25, 0xFF	; 255
    1384:	0c c0       	rjmp	.+24     	; 0x139e <vTaskIncrementTick+0x88>
    1386:	e0 91 3d 03 	lds	r30, 0x033D
    138a:	f0 91 3e 03 	lds	r31, 0x033E
    138e:	05 80       	ldd	r0, Z+5	; 0x05
    1390:	f6 81       	ldd	r31, Z+6	; 0x06
    1392:	e0 2d       	mov	r30, r0
    1394:	06 80       	ldd	r0, Z+6	; 0x06
    1396:	f7 81       	ldd	r31, Z+7	; 0x07
    1398:	e0 2d       	mov	r30, r0
    139a:	82 81       	ldd	r24, Z+2	; 0x02
    139c:	93 81       	ldd	r25, Z+3	; 0x03
    139e:	90 93 6c 00 	sts	0x006C, r25
    13a2:	80 93 6b 00 	sts	0x006B, r24
    13a6:	20 91 07 03 	lds	r18, 0x0307
    13aa:	30 91 08 03 	lds	r19, 0x0308
    13ae:	80 91 6b 00 	lds	r24, 0x006B
    13b2:	90 91 6c 00 	lds	r25, 0x006C
    13b6:	28 17       	cp	r18, r24
    13b8:	39 07       	cpc	r19, r25
    13ba:	08 f4       	brcc	.+2      	; 0x13be <vTaskIncrementTick+0xa8>
    13bc:	4a c0       	rjmp	.+148    	; 0x1452 <vTaskIncrementTick+0x13c>
    13be:	89 e0       	ldi	r24, 0x09	; 9
    13c0:	f8 2e       	mov	r15, r24
    13c2:	e0 91 3d 03 	lds	r30, 0x033D
    13c6:	f0 91 3e 03 	lds	r31, 0x033E
    13ca:	80 81       	ld	r24, Z
    13cc:	88 23       	and	r24, r24
    13ce:	39 f4       	brne	.+14     	; 0x13de <vTaskIncrementTick+0xc8>
    13d0:	8f ef       	ldi	r24, 0xFF	; 255
    13d2:	9f ef       	ldi	r25, 0xFF	; 255
    13d4:	90 93 6c 00 	sts	0x006C, r25
    13d8:	80 93 6b 00 	sts	0x006B, r24
    13dc:	3a c0       	rjmp	.+116    	; 0x1452 <vTaskIncrementTick+0x13c>
    13de:	e0 91 3d 03 	lds	r30, 0x033D
    13e2:	f0 91 3e 03 	lds	r31, 0x033E
    13e6:	05 80       	ldd	r0, Z+5	; 0x05
    13e8:	f6 81       	ldd	r31, Z+6	; 0x06
    13ea:	e0 2d       	mov	r30, r0
    13ec:	c6 81       	ldd	r28, Z+6	; 0x06
    13ee:	d7 81       	ldd	r29, Z+7	; 0x07
    13f0:	2a 81       	ldd	r18, Y+2	; 0x02
    13f2:	3b 81       	ldd	r19, Y+3	; 0x03
    13f4:	80 91 07 03 	lds	r24, 0x0307
    13f8:	90 91 08 03 	lds	r25, 0x0308
    13fc:	82 17       	cp	r24, r18
    13fe:	93 07       	cpc	r25, r19
    1400:	28 f4       	brcc	.+10     	; 0x140c <vTaskIncrementTick+0xf6>
    1402:	30 93 6c 00 	sts	0x006C, r19
    1406:	20 93 6b 00 	sts	0x006B, r18
    140a:	23 c0       	rjmp	.+70     	; 0x1452 <vTaskIncrementTick+0x13c>
    140c:	8e 01       	movw	r16, r28
    140e:	0e 5f       	subi	r16, 0xFE	; 254
    1410:	1f 4f       	sbci	r17, 0xFF	; 255
    1412:	c8 01       	movw	r24, r16
    1414:	0e 94 b7 02 	call	0x56e	; 0x56e <vListRemove>
    1418:	8c 89       	ldd	r24, Y+20	; 0x14
    141a:	9d 89       	ldd	r25, Y+21	; 0x15
    141c:	89 2b       	or	r24, r25
    141e:	21 f0       	breq	.+8      	; 0x1428 <vTaskIncrementTick+0x112>
    1420:	ce 01       	movw	r24, r28
    1422:	0c 96       	adiw	r24, 0x0c	; 12
    1424:	0e 94 b7 02 	call	0x56e	; 0x56e <vListRemove>
    1428:	9e 89       	ldd	r25, Y+22	; 0x16
    142a:	80 91 04 03 	lds	r24, 0x0304
    142e:	89 17       	cp	r24, r25
    1430:	10 f4       	brcc	.+4      	; 0x1436 <vTaskIncrementTick+0x120>
    1432:	90 93 04 03 	sts	0x0304, r25
    1436:	9f 9d       	mul	r25, r15
    1438:	c0 01       	movw	r24, r0
    143a:	11 24       	eor	r1, r1
    143c:	80 5f       	subi	r24, 0xF0	; 240
    143e:	9c 4f       	sbci	r25, 0xFC	; 252
    1440:	b8 01       	movw	r22, r16
    1442:	0e 94 59 02 	call	0x4b2	; 0x4b2 <vListInsertEnd>
    1446:	bd cf       	rjmp	.-134    	; 0x13c2 <vTaskIncrementTick+0xac>
    1448:	80 91 0a 03 	lds	r24, 0x030A
    144c:	8f 5f       	subi	r24, 0xFF	; 255
    144e:	80 93 0a 03 	sts	0x030A, r24
    1452:	df 91       	pop	r29
    1454:	cf 91       	pop	r28
    1456:	1f 91       	pop	r17
    1458:	0f 91       	pop	r16
    145a:	ff 90       	pop	r15
    145c:	08 95       	ret

0000145e <prvAddCurrentTaskToDelayedList>:
    145e:	cf 93       	push	r28
    1460:	df 93       	push	r29
    1462:	ec 01       	movw	r28, r24
    1464:	e0 91 02 03 	lds	r30, 0x0302
    1468:	f0 91 03 03 	lds	r31, 0x0303
    146c:	93 83       	std	Z+3, r25	; 0x03
    146e:	82 83       	std	Z+2, r24	; 0x02
    1470:	80 91 07 03 	lds	r24, 0x0307
    1474:	90 91 08 03 	lds	r25, 0x0308
    1478:	c8 17       	cp	r28, r24
    147a:	d9 07       	cpc	r29, r25
    147c:	68 f4       	brcc	.+26     	; 0x1498 <prvAddCurrentTaskToDelayedList+0x3a>
    147e:	80 91 3f 03 	lds	r24, 0x033F
    1482:	90 91 40 03 	lds	r25, 0x0340
    1486:	60 91 02 03 	lds	r22, 0x0302
    148a:	70 91 03 03 	lds	r23, 0x0303
    148e:	6e 5f       	subi	r22, 0xFE	; 254
    1490:	7f 4f       	sbci	r23, 0xFF	; 255
    1492:	0e 94 82 02 	call	0x504	; 0x504 <vListInsert>
    1496:	17 c0       	rjmp	.+46     	; 0x14c6 <prvAddCurrentTaskToDelayedList+0x68>
    1498:	80 91 3d 03 	lds	r24, 0x033D
    149c:	90 91 3e 03 	lds	r25, 0x033E
    14a0:	60 91 02 03 	lds	r22, 0x0302
    14a4:	70 91 03 03 	lds	r23, 0x0303
    14a8:	6e 5f       	subi	r22, 0xFE	; 254
    14aa:	7f 4f       	sbci	r23, 0xFF	; 255
    14ac:	0e 94 82 02 	call	0x504	; 0x504 <vListInsert>
    14b0:	80 91 6b 00 	lds	r24, 0x006B
    14b4:	90 91 6c 00 	lds	r25, 0x006C
    14b8:	c8 17       	cp	r28, r24
    14ba:	d9 07       	cpc	r29, r25
    14bc:	20 f4       	brcc	.+8      	; 0x14c6 <prvAddCurrentTaskToDelayedList+0x68>
    14be:	d0 93 6c 00 	sts	0x006C, r29
    14c2:	c0 93 6b 00 	sts	0x006B, r28
    14c6:	df 91       	pop	r29
    14c8:	cf 91       	pop	r28
    14ca:	08 95       	ret

000014cc <vTaskPlaceOnEventList>:
    14cc:	0f 93       	push	r16
    14ce:	1f 93       	push	r17
    14d0:	8b 01       	movw	r16, r22
    14d2:	60 91 02 03 	lds	r22, 0x0302
    14d6:	70 91 03 03 	lds	r23, 0x0303
    14da:	64 5f       	subi	r22, 0xF4	; 244
    14dc:	7f 4f       	sbci	r23, 0xFF	; 255
    14de:	0e 94 82 02 	call	0x504	; 0x504 <vListInsert>
    14e2:	80 91 02 03 	lds	r24, 0x0302
    14e6:	90 91 03 03 	lds	r25, 0x0303
    14ea:	02 96       	adiw	r24, 0x02	; 2
    14ec:	0e 94 b7 02 	call	0x56e	; 0x56e <vListRemove>
    14f0:	80 91 07 03 	lds	r24, 0x0307
    14f4:	90 91 08 03 	lds	r25, 0x0308
    14f8:	80 0f       	add	r24, r16
    14fa:	91 1f       	adc	r25, r17
    14fc:	0e 94 2f 0a 	call	0x145e	; 0x145e <prvAddCurrentTaskToDelayedList>
    1500:	1f 91       	pop	r17
    1502:	0f 91       	pop	r16
    1504:	08 95       	ret

00001506 <xTaskResumeAll>:
    1506:	cf 92       	push	r12
    1508:	df 92       	push	r13
    150a:	ff 92       	push	r15
    150c:	0f 93       	push	r16
    150e:	1f 93       	push	r17
    1510:	df 93       	push	r29
    1512:	cf 93       	push	r28
    1514:	0f 92       	push	r0
    1516:	cd b7       	in	r28, 0x3d	; 61
    1518:	de b7       	in	r29, 0x3e	; 62
    151a:	0f b6       	in	r0, 0x3f	; 63
    151c:	f8 94       	cli
    151e:	0f 92       	push	r0
    1520:	80 91 09 03 	lds	r24, 0x0309
    1524:	81 50       	subi	r24, 0x01	; 1
    1526:	80 93 09 03 	sts	0x0309, r24
    152a:	80 91 09 03 	lds	r24, 0x0309
    152e:	88 23       	and	r24, r24
    1530:	09 f0       	breq	.+2      	; 0x1534 <xTaskResumeAll+0x2e>
    1532:	58 c0       	rjmp	.+176    	; 0x15e4 <xTaskResumeAll+0xde>
    1534:	80 91 0b 03 	lds	r24, 0x030B
    1538:	88 23       	and	r24, r24
    153a:	09 f4       	brne	.+2      	; 0x153e <xTaskResumeAll+0x38>
    153c:	53 c0       	rjmp	.+166    	; 0x15e4 <xTaskResumeAll+0xde>
    153e:	19 82       	std	Y+1, r1	; 0x01
    1540:	99 e0       	ldi	r25, 0x09	; 9
    1542:	f9 2e       	mov	r15, r25
    1544:	2d c0       	rjmp	.+90     	; 0x15a0 <xTaskResumeAll+0x9a>
    1546:	e0 91 46 03 	lds	r30, 0x0346
    154a:	f0 91 47 03 	lds	r31, 0x0347
    154e:	c6 80       	ldd	r12, Z+6	; 0x06
    1550:	d7 80       	ldd	r13, Z+7	; 0x07
    1552:	c6 01       	movw	r24, r12
    1554:	0c 96       	adiw	r24, 0x0c	; 12
    1556:	0e 94 b7 02 	call	0x56e	; 0x56e <vListRemove>
    155a:	86 01       	movw	r16, r12
    155c:	0e 5f       	subi	r16, 0xFE	; 254
    155e:	1f 4f       	sbci	r17, 0xFF	; 255
    1560:	c8 01       	movw	r24, r16
    1562:	0e 94 b7 02 	call	0x56e	; 0x56e <vListRemove>
    1566:	d6 01       	movw	r26, r12
    1568:	56 96       	adiw	r26, 0x16	; 22
    156a:	9c 91       	ld	r25, X
    156c:	80 91 04 03 	lds	r24, 0x0304
    1570:	89 17       	cp	r24, r25
    1572:	10 f4       	brcc	.+4      	; 0x1578 <xTaskResumeAll+0x72>
    1574:	90 93 04 03 	sts	0x0304, r25
    1578:	9f 9d       	mul	r25, r15
    157a:	c0 01       	movw	r24, r0
    157c:	11 24       	eor	r1, r1
    157e:	80 5f       	subi	r24, 0xF0	; 240
    1580:	9c 4f       	sbci	r25, 0xFC	; 252
    1582:	b8 01       	movw	r22, r16
    1584:	0e 94 59 02 	call	0x4b2	; 0x4b2 <vListInsertEnd>
    1588:	e0 91 02 03 	lds	r30, 0x0302
    158c:	f0 91 03 03 	lds	r31, 0x0303
    1590:	d6 01       	movw	r26, r12
    1592:	56 96       	adiw	r26, 0x16	; 22
    1594:	9c 91       	ld	r25, X
    1596:	86 89       	ldd	r24, Z+22	; 0x16
    1598:	98 17       	cp	r25, r24
    159a:	10 f0       	brcs	.+4      	; 0x15a0 <xTaskResumeAll+0x9a>
    159c:	b1 e0       	ldi	r27, 0x01	; 1
    159e:	b9 83       	std	Y+1, r27	; 0x01
    15a0:	80 91 41 03 	lds	r24, 0x0341
    15a4:	88 23       	and	r24, r24
    15a6:	79 f6       	brne	.-98     	; 0x1546 <xTaskResumeAll+0x40>
    15a8:	80 91 0a 03 	lds	r24, 0x030A
    15ac:	88 23       	and	r24, r24
    15ae:	41 f4       	brne	.+16     	; 0x15c0 <xTaskResumeAll+0xba>
    15b0:	0c c0       	rjmp	.+24     	; 0x15ca <xTaskResumeAll+0xc4>
    15b2:	0e 94 8b 09 	call	0x1316	; 0x1316 <vTaskIncrementTick>
    15b6:	80 91 0a 03 	lds	r24, 0x030A
    15ba:	81 50       	subi	r24, 0x01	; 1
    15bc:	80 93 0a 03 	sts	0x030A, r24
    15c0:	80 91 0a 03 	lds	r24, 0x030A
    15c4:	88 23       	and	r24, r24
    15c6:	a9 f7       	brne	.-22     	; 0x15b2 <xTaskResumeAll+0xac>
    15c8:	07 c0       	rjmp	.+14     	; 0x15d8 <xTaskResumeAll+0xd2>
    15ca:	e9 81       	ldd	r30, Y+1	; 0x01
    15cc:	e1 30       	cpi	r30, 0x01	; 1
    15ce:	21 f0       	breq	.+8      	; 0x15d8 <xTaskResumeAll+0xd2>
    15d0:	80 91 05 03 	lds	r24, 0x0305
    15d4:	81 30       	cpi	r24, 0x01	; 1
    15d6:	31 f4       	brne	.+12     	; 0x15e4 <xTaskResumeAll+0xde>
    15d8:	10 92 05 03 	sts	0x0305, r1
    15dc:	0e 94 44 04 	call	0x888	; 0x888 <vPortYield>
    15e0:	81 e0       	ldi	r24, 0x01	; 1
    15e2:	01 c0       	rjmp	.+2      	; 0x15e6 <xTaskResumeAll+0xe0>
    15e4:	80 e0       	ldi	r24, 0x00	; 0
    15e6:	0f 90       	pop	r0
    15e8:	0f be       	out	0x3f, r0	; 63
    15ea:	0f 90       	pop	r0
    15ec:	cf 91       	pop	r28
    15ee:	df 91       	pop	r29
    15f0:	1f 91       	pop	r17
    15f2:	0f 91       	pop	r16
    15f4:	ff 90       	pop	r15
    15f6:	df 90       	pop	r13
    15f8:	cf 90       	pop	r12
    15fa:	08 95       	ret

000015fc <vTaskDelay>:
    15fc:	0f 93       	push	r16
    15fe:	1f 93       	push	r17
    1600:	cf 93       	push	r28
    1602:	df 93       	push	r29
    1604:	ec 01       	movw	r28, r24
    1606:	00 97       	sbiw	r24, 0x00	; 0
    1608:	c9 f0       	breq	.+50     	; 0x163c <vTaskDelay+0x40>
    160a:	80 91 09 03 	lds	r24, 0x0309
    160e:	8f 5f       	subi	r24, 0xFF	; 255
    1610:	80 93 09 03 	sts	0x0309, r24
    1614:	00 91 07 03 	lds	r16, 0x0307
    1618:	10 91 08 03 	lds	r17, 0x0308
    161c:	80 91 02 03 	lds	r24, 0x0302
    1620:	90 91 03 03 	lds	r25, 0x0303
    1624:	02 96       	adiw	r24, 0x02	; 2
    1626:	0e 94 b7 02 	call	0x56e	; 0x56e <vListRemove>
    162a:	ce 01       	movw	r24, r28
    162c:	80 0f       	add	r24, r16
    162e:	91 1f       	adc	r25, r17
    1630:	0e 94 2f 0a 	call	0x145e	; 0x145e <prvAddCurrentTaskToDelayedList>
    1634:	0e 94 83 0a 	call	0x1506	; 0x1506 <xTaskResumeAll>
    1638:	88 23       	and	r24, r24
    163a:	11 f4       	brne	.+4      	; 0x1640 <vTaskDelay+0x44>
    163c:	0e 94 44 04 	call	0x888	; 0x888 <vPortYield>
    1640:	df 91       	pop	r29
    1642:	cf 91       	pop	r28
    1644:	1f 91       	pop	r17
    1646:	0f 91       	pop	r16
    1648:	08 95       	ret

0000164a <vTaskDelayUntil>:
    164a:	cf 93       	push	r28
    164c:	df 93       	push	r29
    164e:	fc 01       	movw	r30, r24
    1650:	eb 01       	movw	r28, r22
    1652:	80 91 09 03 	lds	r24, 0x0309
    1656:	8f 5f       	subi	r24, 0xFF	; 255
    1658:	80 93 09 03 	sts	0x0309, r24
    165c:	20 81       	ld	r18, Z
    165e:	31 81       	ldd	r19, Z+1	; 0x01
    1660:	c2 0f       	add	r28, r18
    1662:	d3 1f       	adc	r29, r19
    1664:	80 91 07 03 	lds	r24, 0x0307
    1668:	90 91 08 03 	lds	r25, 0x0308
    166c:	82 17       	cp	r24, r18
    166e:	93 07       	cpc	r25, r19
    1670:	28 f4       	brcc	.+10     	; 0x167c <vTaskDelayUntil+0x32>
    1672:	c2 17       	cp	r28, r18
    1674:	d3 07       	cpc	r29, r19
    1676:	28 f0       	brcs	.+10     	; 0x1682 <vTaskDelayUntil+0x38>
    1678:	20 e0       	ldi	r18, 0x00	; 0
    167a:	0c c0       	rjmp	.+24     	; 0x1694 <vTaskDelayUntil+0x4a>
    167c:	c2 17       	cp	r28, r18
    167e:	d3 07       	cpc	r29, r19
    1680:	40 f0       	brcs	.+16     	; 0x1692 <vTaskDelayUntil+0x48>
    1682:	80 91 07 03 	lds	r24, 0x0307
    1686:	90 91 08 03 	lds	r25, 0x0308
    168a:	20 e0       	ldi	r18, 0x00	; 0
    168c:	8c 17       	cp	r24, r28
    168e:	9d 07       	cpc	r25, r29
    1690:	08 f4       	brcc	.+2      	; 0x1694 <vTaskDelayUntil+0x4a>
    1692:	21 e0       	ldi	r18, 0x01	; 1
    1694:	d1 83       	std	Z+1, r29	; 0x01
    1696:	c0 83       	st	Z, r28
    1698:	22 23       	and	r18, r18
    169a:	51 f0       	breq	.+20     	; 0x16b0 <vTaskDelayUntil+0x66>
    169c:	80 91 02 03 	lds	r24, 0x0302
    16a0:	90 91 03 03 	lds	r25, 0x0303
    16a4:	02 96       	adiw	r24, 0x02	; 2
    16a6:	0e 94 b7 02 	call	0x56e	; 0x56e <vListRemove>
    16aa:	ce 01       	movw	r24, r28
    16ac:	0e 94 2f 0a 	call	0x145e	; 0x145e <prvAddCurrentTaskToDelayedList>
    16b0:	0e 94 83 0a 	call	0x1506	; 0x1506 <xTaskResumeAll>
    16b4:	88 23       	and	r24, r24
    16b6:	11 f4       	brne	.+4      	; 0x16bc <vTaskDelayUntil+0x72>
    16b8:	0e 94 44 04 	call	0x888	; 0x888 <vPortYield>
    16bc:	df 91       	pop	r29
    16be:	cf 91       	pop	r28
    16c0:	08 95       	ret

000016c2 <vTaskDelete>:
    16c2:	ef 92       	push	r14
    16c4:	ff 92       	push	r15
    16c6:	0f 93       	push	r16
    16c8:	1f 93       	push	r17
    16ca:	cf 93       	push	r28
    16cc:	df 93       	push	r29
    16ce:	8c 01       	movw	r16, r24
    16d0:	0f b6       	in	r0, 0x3f	; 63
    16d2:	f8 94       	cli
    16d4:	0f 92       	push	r0
    16d6:	80 91 02 03 	lds	r24, 0x0302
    16da:	90 91 03 03 	lds	r25, 0x0303
    16de:	08 17       	cp	r16, r24
    16e0:	19 07       	cpc	r17, r25
    16e2:	19 f4       	brne	.+6      	; 0x16ea <vTaskDelete+0x28>
    16e4:	00 e0       	ldi	r16, 0x00	; 0
    16e6:	10 e0       	ldi	r17, 0x00	; 0
    16e8:	03 c0       	rjmp	.+6      	; 0x16f0 <vTaskDelete+0x2e>
    16ea:	01 15       	cp	r16, r1
    16ec:	11 05       	cpc	r17, r1
    16ee:	29 f4       	brne	.+10     	; 0x16fa <vTaskDelete+0x38>
    16f0:	c0 91 02 03 	lds	r28, 0x0302
    16f4:	d0 91 03 03 	lds	r29, 0x0303
    16f8:	01 c0       	rjmp	.+2      	; 0x16fc <vTaskDelete+0x3a>
    16fa:	e8 01       	movw	r28, r16
    16fc:	22 e0       	ldi	r18, 0x02	; 2
    16fe:	e2 2e       	mov	r14, r18
    1700:	f1 2c       	mov	r15, r1
    1702:	ec 0e       	add	r14, r28
    1704:	fd 1e       	adc	r15, r29
    1706:	c7 01       	movw	r24, r14
    1708:	0e 94 b7 02 	call	0x56e	; 0x56e <vListRemove>
    170c:	8c 89       	ldd	r24, Y+20	; 0x14
    170e:	9d 89       	ldd	r25, Y+21	; 0x15
    1710:	89 2b       	or	r24, r25
    1712:	21 f0       	breq	.+8      	; 0x171c <vTaskDelete+0x5a>
    1714:	ce 01       	movw	r24, r28
    1716:	0c 96       	adiw	r24, 0x0c	; 12
    1718:	0e 94 b7 02 	call	0x56e	; 0x56e <vListRemove>
    171c:	8a e4       	ldi	r24, 0x4A	; 74
    171e:	93 e0       	ldi	r25, 0x03	; 3
    1720:	b7 01       	movw	r22, r14
    1722:	0e 94 59 02 	call	0x4b2	; 0x4b2 <vListInsertEnd>
    1726:	80 91 0d 03 	lds	r24, 0x030D
    172a:	8f 5f       	subi	r24, 0xFF	; 255
    172c:	80 93 0d 03 	sts	0x030D, r24
    1730:	80 91 0e 03 	lds	r24, 0x030E
    1734:	8f 5f       	subi	r24, 0xFF	; 255
    1736:	80 93 0e 03 	sts	0x030E, r24
    173a:	0f 90       	pop	r0
    173c:	0f be       	out	0x3f, r0	; 63
    173e:	80 91 0c 03 	lds	r24, 0x030C
    1742:	88 23       	and	r24, r24
    1744:	21 f0       	breq	.+8      	; 0x174e <vTaskDelete+0x8c>
    1746:	01 2b       	or	r16, r17
    1748:	11 f4       	brne	.+4      	; 0x174e <vTaskDelete+0x8c>
    174a:	0e 94 44 04 	call	0x888	; 0x888 <vPortYield>
    174e:	df 91       	pop	r29
    1750:	cf 91       	pop	r28
    1752:	1f 91       	pop	r17
    1754:	0f 91       	pop	r16
    1756:	ff 90       	pop	r15
    1758:	ef 90       	pop	r14
    175a:	08 95       	ret

0000175c <vTaskEndScheduler>:
    175c:	f8 94       	cli
    175e:	10 92 0c 03 	sts	0x030C, r1
    1762:	0e 94 e5 03 	call	0x7ca	; 0x7ca <vPortEndScheduler>
    1766:	08 95       	ret

00001768 <prvIdleTask>:
    1768:	0f 93       	push	r16
    176a:	1f 93       	push	r17
    176c:	80 91 0d 03 	lds	r24, 0x030D
    1770:	88 23       	and	r24, r24
    1772:	e1 f3       	breq	.-8      	; 0x176c <prvIdleTask+0x4>
    1774:	80 91 09 03 	lds	r24, 0x0309
    1778:	8f 5f       	subi	r24, 0xFF	; 255
    177a:	80 93 09 03 	sts	0x0309, r24
    177e:	10 91 4a 03 	lds	r17, 0x034A
    1782:	0e 94 83 0a 	call	0x1506	; 0x1506 <xTaskResumeAll>
    1786:	11 23       	and	r17, r17
    1788:	89 f3       	breq	.-30     	; 0x176c <prvIdleTask+0x4>
    178a:	0f b6       	in	r0, 0x3f	; 63
    178c:	f8 94       	cli
    178e:	0f 92       	push	r0
    1790:	e0 91 4f 03 	lds	r30, 0x034F
    1794:	f0 91 50 03 	lds	r31, 0x0350
    1798:	06 81       	ldd	r16, Z+6	; 0x06
    179a:	17 81       	ldd	r17, Z+7	; 0x07
    179c:	c8 01       	movw	r24, r16
    179e:	02 96       	adiw	r24, 0x02	; 2
    17a0:	0e 94 b7 02 	call	0x56e	; 0x56e <vListRemove>
    17a4:	80 91 0b 03 	lds	r24, 0x030B
    17a8:	81 50       	subi	r24, 0x01	; 1
    17aa:	80 93 0b 03 	sts	0x030B, r24
    17ae:	80 91 0d 03 	lds	r24, 0x030D
    17b2:	81 50       	subi	r24, 0x01	; 1
    17b4:	80 93 0d 03 	sts	0x030D, r24
    17b8:	0f 90       	pop	r0
    17ba:	0f be       	out	0x3f, r0	; 63
    17bc:	f8 01       	movw	r30, r16
    17be:	87 89       	ldd	r24, Z+23	; 0x17
    17c0:	90 8d       	ldd	r25, Z+24	; 0x18
    17c2:	0e 94 07 02 	call	0x40e	; 0x40e <vPortFree>
    17c6:	c8 01       	movw	r24, r16
    17c8:	0e 94 07 02 	call	0x40e	; 0x40e <vPortFree>
    17cc:	cf cf       	rjmp	.-98     	; 0x176c <prvIdleTask+0x4>

000017ce <xTaskGenericCreate>:
    17ce:	2f 92       	push	r2
    17d0:	3f 92       	push	r3
    17d2:	5f 92       	push	r5
    17d4:	6f 92       	push	r6
    17d6:	7f 92       	push	r7
    17d8:	8f 92       	push	r8
    17da:	9f 92       	push	r9
    17dc:	af 92       	push	r10
    17de:	bf 92       	push	r11
    17e0:	cf 92       	push	r12
    17e2:	df 92       	push	r13
    17e4:	ef 92       	push	r14
    17e6:	ff 92       	push	r15
    17e8:	0f 93       	push	r16
    17ea:	1f 93       	push	r17
    17ec:	df 93       	push	r29
    17ee:	cf 93       	push	r28
    17f0:	00 d0       	rcall	.+0      	; 0x17f2 <xTaskGenericCreate+0x24>
    17f2:	00 d0       	rcall	.+0      	; 0x17f4 <xTaskGenericCreate+0x26>
    17f4:	cd b7       	in	r28, 0x3d	; 61
    17f6:	de b7       	in	r29, 0x3e	; 62
    17f8:	9a 83       	std	Y+2, r25	; 0x02
    17fa:	89 83       	std	Y+1, r24	; 0x01
    17fc:	4b 01       	movw	r8, r22
    17fe:	5a 01       	movw	r10, r20
    1800:	19 01       	movw	r2, r18
    1802:	50 2e       	mov	r5, r16
    1804:	37 01       	movw	r6, r14
    1806:	82 e2       	ldi	r24, 0x22	; 34
    1808:	90 e0       	ldi	r25, 0x00	; 0
    180a:	0e 94 17 02 	call	0x42e	; 0x42e <pvPortMalloc>
    180e:	8b 83       	std	Y+3, r24	; 0x03
    1810:	9c 83       	std	Y+4, r25	; 0x04
    1812:	8b 81       	ldd	r24, Y+3	; 0x03
    1814:	9c 81       	ldd	r25, Y+4	; 0x04
    1816:	89 2b       	or	r24, r25
    1818:	89 f0       	breq	.+34     	; 0x183c <xTaskGenericCreate+0x6e>
    181a:	c1 14       	cp	r12, r1
    181c:	d1 04       	cpc	r13, r1
    181e:	21 f4       	brne	.+8      	; 0x1828 <xTaskGenericCreate+0x5a>
    1820:	c5 01       	movw	r24, r10
    1822:	0e 94 17 02 	call	0x42e	; 0x42e <pvPortMalloc>
    1826:	6c 01       	movw	r12, r24
    1828:	eb 81       	ldd	r30, Y+3	; 0x03
    182a:	fc 81       	ldd	r31, Y+4	; 0x04
    182c:	d0 8e       	std	Z+24, r13	; 0x18
    182e:	c7 8a       	std	Z+23, r12	; 0x17
    1830:	c1 14       	cp	r12, r1
    1832:	d1 04       	cpc	r13, r1
    1834:	29 f4       	brne	.+10     	; 0x1840 <xTaskGenericCreate+0x72>
    1836:	cf 01       	movw	r24, r30
    1838:	0e 94 07 02 	call	0x40e	; 0x40e <vPortFree>
    183c:	8f ef       	ldi	r24, 0xFF	; 255
    183e:	d2 c0       	rjmp	.+420    	; 0x19e4 <xTaskGenericCreate+0x216>
    1840:	c6 01       	movw	r24, r12
    1842:	65 ea       	ldi	r22, 0xA5	; 165
    1844:	70 e0       	ldi	r23, 0x00	; 0
    1846:	a5 01       	movw	r20, r10
    1848:	0e 94 5b 0d 	call	0x1ab6	; 0x1ab6 <memset>
    184c:	08 94       	sec
    184e:	a1 08       	sbc	r10, r1
    1850:	b1 08       	sbc	r11, r1
    1852:	eb 81       	ldd	r30, Y+3	; 0x03
    1854:	fc 81       	ldd	r31, Y+4	; 0x04
    1856:	e7 88       	ldd	r14, Z+23	; 0x17
    1858:	f0 8c       	ldd	r15, Z+24	; 0x18
    185a:	ea 0c       	add	r14, r10
    185c:	fb 1c       	adc	r15, r11
    185e:	cf 01       	movw	r24, r30
    1860:	49 96       	adiw	r24, 0x19	; 25
    1862:	b4 01       	movw	r22, r8
    1864:	48 e0       	ldi	r20, 0x08	; 8
    1866:	50 e0       	ldi	r21, 0x00	; 0
    1868:	0e 94 62 0d 	call	0x1ac4	; 0x1ac4 <strncpy>
    186c:	eb 81       	ldd	r30, Y+3	; 0x03
    186e:	fc 81       	ldd	r31, Y+4	; 0x04
    1870:	10 a2       	std	Z+32, r1	; 0x20
    1872:	05 2d       	mov	r16, r5
    1874:	f2 e0       	ldi	r31, 0x02	; 2
    1876:	f5 15       	cp	r31, r5
    1878:	08 f4       	brcc	.+2      	; 0x187c <xTaskGenericCreate+0xae>
    187a:	02 e0       	ldi	r16, 0x02	; 2
    187c:	eb 81       	ldd	r30, Y+3	; 0x03
    187e:	fc 81       	ldd	r31, Y+4	; 0x04
    1880:	06 8b       	std	Z+22, r16	; 0x16
    1882:	01 a3       	std	Z+33, r16	; 0x21
    1884:	42 e0       	ldi	r20, 0x02	; 2
    1886:	c4 2e       	mov	r12, r20
    1888:	d1 2c       	mov	r13, r1
    188a:	ce 0e       	add	r12, r30
    188c:	df 1e       	adc	r13, r31
    188e:	c6 01       	movw	r24, r12
    1890:	0e 94 55 02 	call	0x4aa	; 0x4aa <vListInitialiseItem>
    1894:	8b 81       	ldd	r24, Y+3	; 0x03
    1896:	9c 81       	ldd	r25, Y+4	; 0x04
    1898:	0c 96       	adiw	r24, 0x0c	; 12
    189a:	0e 94 55 02 	call	0x4aa	; 0x4aa <vListInitialiseItem>
    189e:	8b 81       	ldd	r24, Y+3	; 0x03
    18a0:	9c 81       	ldd	r25, Y+4	; 0x04
    18a2:	fc 01       	movw	r30, r24
    18a4:	91 87       	std	Z+9, r25	; 0x09
    18a6:	80 87       	std	Z+8, r24	; 0x08
    18a8:	83 e0       	ldi	r24, 0x03	; 3
    18aa:	90 e0       	ldi	r25, 0x00	; 0
    18ac:	80 1b       	sub	r24, r16
    18ae:	91 09       	sbc	r25, r1
    18b0:	95 87       	std	Z+13, r25	; 0x0d
    18b2:	84 87       	std	Z+12, r24	; 0x0c
    18b4:	f3 8b       	std	Z+19, r31	; 0x13
    18b6:	e2 8b       	std	Z+18, r30	; 0x12
    18b8:	c7 01       	movw	r24, r14
    18ba:	69 81       	ldd	r22, Y+1	; 0x01
    18bc:	7a 81       	ldd	r23, Y+2	; 0x02
    18be:	a1 01       	movw	r20, r2
    18c0:	0e 94 68 03 	call	0x6d0	; 0x6d0 <pxPortInitialiseStack>
    18c4:	eb 81       	ldd	r30, Y+3	; 0x03
    18c6:	fc 81       	ldd	r31, Y+4	; 0x04
    18c8:	91 83       	std	Z+1, r25	; 0x01
    18ca:	80 83       	st	Z, r24
    18cc:	61 14       	cp	r6, r1
    18ce:	71 04       	cpc	r7, r1
    18d0:	21 f0       	breq	.+8      	; 0x18da <xTaskGenericCreate+0x10c>
    18d2:	cf 01       	movw	r24, r30
    18d4:	f3 01       	movw	r30, r6
    18d6:	91 83       	std	Z+1, r25	; 0x01
    18d8:	80 83       	st	Z, r24
    18da:	0f b6       	in	r0, 0x3f	; 63
    18dc:	f8 94       	cli
    18de:	0f 92       	push	r0
    18e0:	80 91 0b 03 	lds	r24, 0x030B
    18e4:	8f 5f       	subi	r24, 0xFF	; 255
    18e6:	80 93 0b 03 	sts	0x030B, r24
    18ea:	80 91 02 03 	lds	r24, 0x0302
    18ee:	90 91 03 03 	lds	r25, 0x0303
    18f2:	89 2b       	or	r24, r25
    18f4:	99 f5       	brne	.+102    	; 0x195c <xTaskGenericCreate+0x18e>
    18f6:	eb 81       	ldd	r30, Y+3	; 0x03
    18f8:	fc 81       	ldd	r31, Y+4	; 0x04
    18fa:	f0 93 03 03 	sts	0x0303, r31
    18fe:	e0 93 02 03 	sts	0x0302, r30
    1902:	80 91 0b 03 	lds	r24, 0x030B
    1906:	81 30       	cpi	r24, 0x01	; 1
    1908:	d1 f5       	brne	.+116    	; 0x197e <xTaskGenericCreate+0x1b0>
    190a:	80 e1       	ldi	r24, 0x10	; 16
    190c:	93 e0       	ldi	r25, 0x03	; 3
    190e:	0e 94 45 02 	call	0x48a	; 0x48a <vListInitialise>
    1912:	89 e1       	ldi	r24, 0x19	; 25
    1914:	93 e0       	ldi	r25, 0x03	; 3
    1916:	0e 94 45 02 	call	0x48a	; 0x48a <vListInitialise>
    191a:	82 e2       	ldi	r24, 0x22	; 34
    191c:	93 e0       	ldi	r25, 0x03	; 3
    191e:	0e 94 45 02 	call	0x48a	; 0x48a <vListInitialise>
    1922:	3b e2       	ldi	r19, 0x2B	; 43
    1924:	e3 2e       	mov	r14, r19
    1926:	33 e0       	ldi	r19, 0x03	; 3
    1928:	f3 2e       	mov	r15, r19
    192a:	c7 01       	movw	r24, r14
    192c:	0e 94 45 02 	call	0x48a	; 0x48a <vListInitialise>
    1930:	04 e3       	ldi	r16, 0x34	; 52
    1932:	13 e0       	ldi	r17, 0x03	; 3
    1934:	c8 01       	movw	r24, r16
    1936:	0e 94 45 02 	call	0x48a	; 0x48a <vListInitialise>
    193a:	81 e4       	ldi	r24, 0x41	; 65
    193c:	93 e0       	ldi	r25, 0x03	; 3
    193e:	0e 94 45 02 	call	0x48a	; 0x48a <vListInitialise>
    1942:	8a e4       	ldi	r24, 0x4A	; 74
    1944:	93 e0       	ldi	r25, 0x03	; 3
    1946:	0e 94 45 02 	call	0x48a	; 0x48a <vListInitialise>
    194a:	f0 92 3e 03 	sts	0x033E, r15
    194e:	e0 92 3d 03 	sts	0x033D, r14
    1952:	10 93 40 03 	sts	0x0340, r17
    1956:	00 93 3f 03 	sts	0x033F, r16
    195a:	11 c0       	rjmp	.+34     	; 0x197e <xTaskGenericCreate+0x1b0>
    195c:	80 91 0c 03 	lds	r24, 0x030C
    1960:	88 23       	and	r24, r24
    1962:	69 f4       	brne	.+26     	; 0x197e <xTaskGenericCreate+0x1b0>
    1964:	e0 91 02 03 	lds	r30, 0x0302
    1968:	f0 91 03 03 	lds	r31, 0x0303
    196c:	86 89       	ldd	r24, Z+22	; 0x16
    196e:	58 16       	cp	r5, r24
    1970:	30 f0       	brcs	.+12     	; 0x197e <xTaskGenericCreate+0x1b0>
    1972:	8b 81       	ldd	r24, Y+3	; 0x03
    1974:	9c 81       	ldd	r25, Y+4	; 0x04
    1976:	90 93 03 03 	sts	0x0303, r25
    197a:	80 93 02 03 	sts	0x0302, r24
    197e:	eb 81       	ldd	r30, Y+3	; 0x03
    1980:	fc 81       	ldd	r31, Y+4	; 0x04
    1982:	96 89       	ldd	r25, Z+22	; 0x16
    1984:	80 91 0f 03 	lds	r24, 0x030F
    1988:	89 17       	cp	r24, r25
    198a:	10 f4       	brcc	.+4      	; 0x1990 <xTaskGenericCreate+0x1c2>
    198c:	90 93 0f 03 	sts	0x030F, r25
    1990:	80 91 0e 03 	lds	r24, 0x030E
    1994:	8f 5f       	subi	r24, 0xFF	; 255
    1996:	80 93 0e 03 	sts	0x030E, r24
    199a:	eb 81       	ldd	r30, Y+3	; 0x03
    199c:	fc 81       	ldd	r31, Y+4	; 0x04
    199e:	96 89       	ldd	r25, Z+22	; 0x16
    19a0:	80 91 04 03 	lds	r24, 0x0304
    19a4:	89 17       	cp	r24, r25
    19a6:	10 f4       	brcc	.+4      	; 0x19ac <xTaskGenericCreate+0x1de>
    19a8:	90 93 04 03 	sts	0x0304, r25
    19ac:	eb 81       	ldd	r30, Y+3	; 0x03
    19ae:	fc 81       	ldd	r31, Y+4	; 0x04
    19b0:	86 89       	ldd	r24, Z+22	; 0x16
    19b2:	29 e0       	ldi	r18, 0x09	; 9
    19b4:	82 9f       	mul	r24, r18
    19b6:	c0 01       	movw	r24, r0
    19b8:	11 24       	eor	r1, r1
    19ba:	80 5f       	subi	r24, 0xF0	; 240
    19bc:	9c 4f       	sbci	r25, 0xFC	; 252
    19be:	b6 01       	movw	r22, r12
    19c0:	0e 94 59 02 	call	0x4b2	; 0x4b2 <vListInsertEnd>
    19c4:	0f 90       	pop	r0
    19c6:	0f be       	out	0x3f, r0	; 63
    19c8:	80 91 0c 03 	lds	r24, 0x030C
    19cc:	88 23       	and	r24, r24
    19ce:	49 f0       	breq	.+18     	; 0x19e2 <xTaskGenericCreate+0x214>
    19d0:	e0 91 02 03 	lds	r30, 0x0302
    19d4:	f0 91 03 03 	lds	r31, 0x0303
    19d8:	86 89       	ldd	r24, Z+22	; 0x16
    19da:	85 15       	cp	r24, r5
    19dc:	10 f4       	brcc	.+4      	; 0x19e2 <xTaskGenericCreate+0x214>
    19de:	0e 94 44 04 	call	0x888	; 0x888 <vPortYield>
    19e2:	81 e0       	ldi	r24, 0x01	; 1
    19e4:	0f 90       	pop	r0
    19e6:	0f 90       	pop	r0
    19e8:	0f 90       	pop	r0
    19ea:	0f 90       	pop	r0
    19ec:	cf 91       	pop	r28
    19ee:	df 91       	pop	r29
    19f0:	1f 91       	pop	r17
    19f2:	0f 91       	pop	r16
    19f4:	ff 90       	pop	r15
    19f6:	ef 90       	pop	r14
    19f8:	df 90       	pop	r13
    19fa:	cf 90       	pop	r12
    19fc:	bf 90       	pop	r11
    19fe:	af 90       	pop	r10
    1a00:	9f 90       	pop	r9
    1a02:	8f 90       	pop	r8
    1a04:	7f 90       	pop	r7
    1a06:	6f 90       	pop	r6
    1a08:	5f 90       	pop	r5
    1a0a:	3f 90       	pop	r3
    1a0c:	2f 90       	pop	r2
    1a0e:	08 95       	ret

00001a10 <vTaskStartScheduler>:
    1a10:	af 92       	push	r10
    1a12:	bf 92       	push	r11
    1a14:	cf 92       	push	r12
    1a16:	df 92       	push	r13
    1a18:	ef 92       	push	r14
    1a1a:	ff 92       	push	r15
    1a1c:	0f 93       	push	r16
    1a1e:	84 eb       	ldi	r24, 0xB4	; 180
    1a20:	9b e0       	ldi	r25, 0x0B	; 11
    1a22:	66 e6       	ldi	r22, 0x66	; 102
    1a24:	70 e0       	ldi	r23, 0x00	; 0
    1a26:	45 e5       	ldi	r20, 0x55	; 85
    1a28:	50 e0       	ldi	r21, 0x00	; 0
    1a2a:	20 e0       	ldi	r18, 0x00	; 0
    1a2c:	30 e0       	ldi	r19, 0x00	; 0
    1a2e:	00 e0       	ldi	r16, 0x00	; 0
    1a30:	ee 24       	eor	r14, r14
    1a32:	ff 24       	eor	r15, r15
    1a34:	cc 24       	eor	r12, r12
    1a36:	dd 24       	eor	r13, r13
    1a38:	aa 24       	eor	r10, r10
    1a3a:	bb 24       	eor	r11, r11
    1a3c:	0e 94 e7 0b 	call	0x17ce	; 0x17ce <xTaskGenericCreate>
    1a40:	81 30       	cpi	r24, 0x01	; 1
    1a42:	49 f4       	brne	.+18     	; 0x1a56 <vTaskStartScheduler+0x46>
    1a44:	f8 94       	cli
    1a46:	80 93 0c 03 	sts	0x030C, r24
    1a4a:	10 92 08 03 	sts	0x0308, r1
    1a4e:	10 92 07 03 	sts	0x0307, r1
    1a52:	0e 94 b0 03 	call	0x760	; 0x760 <xPortStartScheduler>
    1a56:	0f 91       	pop	r16
    1a58:	ff 90       	pop	r15
    1a5a:	ef 90       	pop	r14
    1a5c:	df 90       	pop	r13
    1a5e:	cf 90       	pop	r12
    1a60:	bf 90       	pop	r11
    1a62:	af 90       	pop	r10
    1a64:	08 95       	ret

00001a66 <USART_Init>:
    1a66:	10 bc       	out	0x20, r1	; 32
    1a68:	83 e3       	ldi	r24, 0x33	; 51
    1a6a:	89 b9       	out	0x09, r24	; 9
    1a6c:	80 b5       	in	r24, 0x20	; 32
    1a6e:	8e 60       	ori	r24, 0x0E	; 14
    1a70:	80 bd       	out	0x20, r24	; 32
    1a72:	8a b1       	in	r24, 0x0a	; 10
    1a74:	88 61       	ori	r24, 0x18	; 24
    1a76:	8a b9       	out	0x0a, r24	; 10
    1a78:	08 95       	ret

00001a7a <USART_Transmit>:
    1a7a:	5d 9b       	sbis	0x0b, 5	; 11
    1a7c:	fe cf       	rjmp	.-4      	; 0x1a7a <USART_Transmit>
    1a7e:	8c b9       	out	0x0c, r24	; 12
    1a80:	08 95       	ret

00001a82 <USART_Receive>:
    1a82:	5f 9b       	sbis	0x0b, 7	; 11
    1a84:	fe cf       	rjmp	.-4      	; 0x1a82 <USART_Receive>
    1a86:	8c b1       	in	r24, 0x0c	; 12
    1a88:	08 95       	ret

00001a8a <USART_putstring>:
    1a8a:	20 e0       	ldi	r18, 0x00	; 0
    1a8c:	04 c0       	rjmp	.+8      	; 0x1a96 <USART_putstring+0xc>
    1a8e:	5d 9b       	sbis	0x0b, 5	; 11
    1a90:	fe cf       	rjmp	.-4      	; 0x1a8e <USART_putstring+0x4>
    1a92:	ec b9       	out	0x0c, r30	; 12
    1a94:	2f 5f       	subi	r18, 0xFF	; 255
    1a96:	fc 01       	movw	r30, r24
    1a98:	e2 0f       	add	r30, r18
    1a9a:	f1 1d       	adc	r31, r1
    1a9c:	e0 81       	ld	r30, Z
    1a9e:	ee 23       	and	r30, r30
    1aa0:	b1 f7       	brne	.-20     	; 0x1a8e <USART_putstring+0x4>
    1aa2:	08 95       	ret

00001aa4 <memcpy>:
    1aa4:	fb 01       	movw	r30, r22
    1aa6:	dc 01       	movw	r26, r24
    1aa8:	02 c0       	rjmp	.+4      	; 0x1aae <memcpy+0xa>
    1aaa:	01 90       	ld	r0, Z+
    1aac:	0d 92       	st	X+, r0
    1aae:	41 50       	subi	r20, 0x01	; 1
    1ab0:	50 40       	sbci	r21, 0x00	; 0
    1ab2:	d8 f7       	brcc	.-10     	; 0x1aaa <memcpy+0x6>
    1ab4:	08 95       	ret

00001ab6 <memset>:
    1ab6:	dc 01       	movw	r26, r24
    1ab8:	01 c0       	rjmp	.+2      	; 0x1abc <memset+0x6>
    1aba:	6d 93       	st	X+, r22
    1abc:	41 50       	subi	r20, 0x01	; 1
    1abe:	50 40       	sbci	r21, 0x00	; 0
    1ac0:	e0 f7       	brcc	.-8      	; 0x1aba <memset+0x4>
    1ac2:	08 95       	ret

00001ac4 <strncpy>:
    1ac4:	fb 01       	movw	r30, r22
    1ac6:	dc 01       	movw	r26, r24
    1ac8:	41 50       	subi	r20, 0x01	; 1
    1aca:	50 40       	sbci	r21, 0x00	; 0
    1acc:	48 f0       	brcs	.+18     	; 0x1ae0 <strncpy+0x1c>
    1ace:	01 90       	ld	r0, Z+
    1ad0:	0d 92       	st	X+, r0
    1ad2:	00 20       	and	r0, r0
    1ad4:	c9 f7       	brne	.-14     	; 0x1ac8 <strncpy+0x4>
    1ad6:	01 c0       	rjmp	.+2      	; 0x1ada <strncpy+0x16>
    1ad8:	1d 92       	st	X+, r1
    1ada:	41 50       	subi	r20, 0x01	; 1
    1adc:	50 40       	sbci	r21, 0x00	; 0
    1ade:	e0 f7       	brcc	.-8      	; 0x1ad8 <strncpy+0x14>
    1ae0:	08 95       	ret

00001ae2 <_exit>:
    1ae2:	f8 94       	cli

00001ae4 <__stop_program>:
    1ae4:	ff cf       	rjmp	.-2      	; 0x1ae4 <__stop_program>
